
Led ring ACE.elf:     file format elf32-avr

Sections:
Idx Name          Size      VMA       LMA       File off  Algn
  0 .data         0000001e  00800100  00001770  00001804  2**0
                  CONTENTS, ALLOC, LOAD, DATA
  1 .text         00001770  00000000  00000000  00000094  2**1
                  CONTENTS, ALLOC, LOAD, READONLY, CODE
  2 .bss          000000f2  0080011e  0080011e  00001822  2**0
                  ALLOC
  3 .comment      00000030  00000000  00000000  00001822  2**0
                  CONTENTS, READONLY
  4 .note.gnu.avr.deviceinfo 0000003c  00000000  00000000  00001854  2**2
                  CONTENTS, READONLY
  5 .debug_info   00000576  00000000  00000000  00001890  2**0
                  CONTENTS, READONLY, DEBUGGING
  6 .debug_abbrev 0000052b  00000000  00000000  00001e06  2**0
                  CONTENTS, READONLY, DEBUGGING
  7 .debug_line   00000110  00000000  00000000  00002331  2**0
                  CONTENTS, READONLY, DEBUGGING
  8 .debug_str    000001d9  00000000  00000000  00002441  2**0
                  CONTENTS, READONLY, DEBUGGING

Disassembly of section .text:

00000000 <__vectors>:
       0:	93 c0       	rjmp	.+294    	; 0x128 <__ctors_end>
       2:	ad c0       	rjmp	.+346    	; 0x15e <__bad_interrupt>
       4:	ac c0       	rjmp	.+344    	; 0x15e <__bad_interrupt>
       6:	4b c8       	rjmp	.-3946   	; 0xfffff09e <__eeprom_end+0xff7ef09e>
       8:	aa c0       	rjmp	.+340    	; 0x15e <__bad_interrupt>
       a:	a9 c0       	rjmp	.+338    	; 0x15e <__bad_interrupt>
       c:	a8 c0       	rjmp	.+336    	; 0x15e <__bad_interrupt>
       e:	a7 c0       	rjmp	.+334    	; 0x15e <__bad_interrupt>
      10:	a6 c0       	rjmp	.+332    	; 0x15e <__bad_interrupt>
      12:	a5 c0       	rjmp	.+330    	; 0x15e <__bad_interrupt>
      14:	a4 c0       	rjmp	.+328    	; 0x15e <__bad_interrupt>
      16:	a3 c0       	rjmp	.+326    	; 0x15e <__bad_interrupt>
      18:	28 c2       	rjmp	.+1104   	; 0x46a <__vector_12>
      1a:	a1 c0       	rjmp	.+322    	; 0x15e <__bad_interrupt>
      1c:	a0 c0       	rjmp	.+320    	; 0x15e <__bad_interrupt>
      1e:	9f c0       	rjmp	.+318    	; 0x15e <__bad_interrupt>
      20:	9e c0       	rjmp	.+316    	; 0x15e <__bad_interrupt>
      22:	9d c0       	rjmp	.+314    	; 0x15e <__bad_interrupt>
      24:	9c c0       	rjmp	.+312    	; 0x15e <__bad_interrupt>
      26:	9b c0       	rjmp	.+310    	; 0x15e <__bad_interrupt>

00000028 <__trampolines_end>:
      28:	ff 38       	cpi	r31, 0x8F	; 143
      2a:	28 37       	cpi	r18, 0x78	; 120
      2c:	18 ff       	.word	0xff18	; ????
      2e:	27 34       	cpi	r18, 0x47	; 71
      30:	08 39       	cpi	r16, 0x98	; 152
      32:	ff ff       	.word	0xffff	; ????
      34:	17 ff       	sbrs	r17, 7
      36:	24 0d       	add	r18, r4
      38:	78 ff       	.word	0xff78	; ????
      3a:	29 36       	cpi	r18, 0x69	; 105
      3c:	ff ff       	.word	0xffff	; ????
      3e:	ff 35       	cpi	r31, 0x5F	; 95
      40:	07 ff       	sbrs	r16, 7
      42:	ff ff       	.word	0xffff	; ????
      44:	14 13       	cpse	r17, r20
      46:	7d 12       	cpse	r7, r29
      48:	68 69       	ori	r22, 0x98	; 152
      4a:	ff ff       	.word	0xffff	; ????
      4c:	19 6a       	ori	r17, 0xA9	; 169
      4e:	26 ff       	sbrs	r18, 6
      50:	ff 3a       	cpi	r31, 0xAF	; 175
      52:	ff ff       	.word	0xffff	; ????
      54:	ff ff       	.word	0xffff	; ????
      56:	25 0e       	add	r2, r21
      58:	77 76       	andi	r23, 0x67	; 103
      5a:	ff ff       	.word	0xffff	; ????
      5c:	ff 6b       	ori	r31, 0xBF	; 191
      5e:	ff ff       	.word	0xffff	; ????
      60:	04 ff       	sbrs	r16, 4
      62:	03 ff       	sbrs	r16, 3
      64:	6d 6c       	ori	r22, 0xCD	; 205
      66:	02 01       	movw	r0, r4
      68:	58 ff       	.word	0xff58	; ????
      6a:	59 ff       	.word	0xff59	; ????
      6c:	ff ff       	.word	0xffff	; ????
      6e:	ff 33       	cpi	r31, 0x3F	; 63
      70:	09 0a       	sbc	r0, r25
      72:	5a ff       	.word	0xff5a	; ????
      74:	16 0b       	sbc	r17, r22
      76:	ff 0c       	add	r15, r15
      78:	ff ff       	.word	0xffff	; ????
      7a:	2a 2b       	or	r18, r26
      7c:	ff ff       	.word	0xffff	; ????
      7e:	ff ff       	.word	0xffff	; ????
      80:	ff ff       	.word	0xffff	; ????
      82:	ff ff       	.word	0xffff	; ????
      84:	15 ff       	sbrs	r17, 5
      86:	7e 7f       	andi	r23, 0xFE	; 254
      88:	67 ff       	sbrs	r22, 7
      8a:	66 ff       	sbrs	r22, 6
      8c:	ff ff       	.word	0xffff	; ????
      8e:	ff ff       	.word	0xffff	; ????
      90:	ff ff       	.word	0xffff	; ????
      92:	5b ff       	.word	0xff5b	; ????
      94:	ff ff       	.word	0xffff	; ????
      96:	ff ff       	.word	0xffff	; ????
      98:	74 75       	andi	r23, 0x54	; 84
      9a:	ff ff       	.word	0xffff	; ????
      9c:	73 ff       	sbrs	r23, 3
      9e:	ff ff       	.word	0xffff	; ????
      a0:	5d 5e       	subi	r21, 0xED	; 237
      a2:	5c ff       	.word	0xff5c	; ????
      a4:	72 5f       	subi	r23, 0xF2	; 242
      a6:	71 00       	.word	0x0071	; ????
      a8:	48 47       	sbci	r20, 0x78	; 120
      aa:	ff 44       	sbci	r31, 0x4F	; 79
      ac:	49 ff       	.word	0xff49	; ????
      ae:	ff 1d       	adc	r31, r15
      b0:	ff 46       	sbci	r31, 0x6F	; 111
      b2:	ff 45       	sbci	r31, 0x5F	; 95
      b4:	ff ff       	.word	0xffff	; ????
      b6:	23 22       	and	r2, r19
      b8:	79 ff       	.word	0xff79	; ????
      ba:	7a ff       	.word	0xff7a	; ????
      bc:	4a ff       	.word	0xff4a	; ????
      be:	ff 1e       	adc	r15, r31
      c0:	06 ff       	sbrs	r16, 6
      c2:	7b ff       	.word	0xff7b	; ????
      c4:	ff ff       	.word	0xffff	; ????
      c6:	7c 11       	cpse	r23, r12
      c8:	ff ff       	.word	0xffff	; ????
      ca:	ff 43       	sbci	r31, 0x3F	; 63
      cc:	1a ff       	.word	0xff1a	; ????
      ce:	1b 1c       	adc	r1, r11
      d0:	ff 3b       	cpi	r31, 0xBF	; 191
      d2:	ff ff       	.word	0xffff	; ????
      d4:	ff ff       	.word	0xffff	; ????
      d6:	ff 0f       	add	r31, r31
      d8:	ff ff       	.word	0xffff	; ????
      da:	ff ff       	.word	0xffff	; ????
      dc:	ff ff       	.word	0xffff	; ????
      de:	ff ff       	.word	0xffff	; ????
      e0:	05 ff       	sbrs	r16, 5
      e2:	ff ff       	.word	0xffff	; ????
      e4:	6e ff       	.word	0xff6e	; ????
      e6:	6f 10       	cpse	r6, r15
      e8:	57 54       	subi	r21, 0x47	; 71
      ea:	ff 2d       	mov	r31, r15
      ec:	56 55       	subi	r21, 0x56	; 86
      ee:	ff 32       	cpi	r31, 0x2F	; 47
      f0:	ff ff       	.word	0xffff	; ????
      f2:	ff 2e       	mov	r15, r31
      f4:	ff ff       	.word	0xffff	; ????
      f6:	ff 21       	and	r31, r15
      f8:	ff 53       	subi	r31, 0x3F	; 63
      fa:	ff 2c       	mov	r15, r15
      fc:	4b ff       	.word	0xff4b	; ????
      fe:	ff 1f       	adc	r31, r31
     100:	ff ff       	.word	0xffff	; ????
     102:	ff ff       	.word	0xffff	; ????
     104:	ff ff       	.word	0xffff	; ????
     106:	ff 20       	and	r15, r15
     108:	64 3d       	cpi	r22, 0xD4	; 212
     10a:	65 42       	sbci	r22, 0x25	; 37
     10c:	ff 3e       	cpi	r31, 0xEF	; 239
     10e:	ff 31       	cpi	r31, 0x1F	; 31
     110:	63 3c       	cpi	r22, 0xC3	; 195
     112:	ff 2f       	mov	r31, r31
     114:	ff ff       	.word	0xffff	; ????
     116:	ff 30       	cpi	r31, 0x0F	; 15
     118:	4d 52       	subi	r20, 0x2D	; 45
     11a:	4e 41       	sbci	r20, 0x1E	; 30
     11c:	4c 3f       	cpi	r20, 0xFC	; 252
     11e:	ff 40       	sbci	r31, 0x0F	; 15
     120:	62 51       	subi	r22, 0x12	; 18
     122:	4f 50       	subi	r20, 0x0F	; 15
     124:	61 60       	ori	r22, 0x01	; 1
     126:	70 ff       	sbrs	r23, 0

00000128 <__ctors_end>:
     128:	11 24       	eor	r1, r1
     12a:	1f be       	out	0x3f, r1	; 63
     12c:	cf ef       	ldi	r28, 0xFF	; 255
     12e:	d2 e0       	ldi	r29, 0x02	; 2
     130:	de bf       	out	0x3e, r29	; 62
     132:	cd bf       	out	0x3d, r28	; 61

00000134 <__do_copy_data>:
     134:	11 e0       	ldi	r17, 0x01	; 1
     136:	a0 e0       	ldi	r26, 0x00	; 0
     138:	b1 e0       	ldi	r27, 0x01	; 1
     13a:	e0 e7       	ldi	r30, 0x70	; 112
     13c:	f7 e1       	ldi	r31, 0x17	; 23
     13e:	02 c0       	rjmp	.+4      	; 0x144 <__do_copy_data+0x10>
     140:	05 90       	lpm	r0, Z+
     142:	0d 92       	st	X+, r0
     144:	ae 31       	cpi	r26, 0x1E	; 30
     146:	b1 07       	cpc	r27, r17
     148:	d9 f7       	brne	.-10     	; 0x140 <__do_copy_data+0xc>

0000014a <__do_clear_bss>:
     14a:	22 e0       	ldi	r18, 0x02	; 2
     14c:	ae e1       	ldi	r26, 0x1E	; 30
     14e:	b1 e0       	ldi	r27, 0x01	; 1
     150:	01 c0       	rjmp	.+2      	; 0x154 <.do_clear_bss_start>

00000152 <.do_clear_bss_loop>:
     152:	1d 92       	st	X+, r1

00000154 <.do_clear_bss_start>:
     154:	a0 31       	cpi	r26, 0x10	; 16
     156:	b2 07       	cpc	r27, r18
     158:	e1 f7       	brne	.-8      	; 0x152 <.do_clear_bss_loop>
     15a:	06 d6       	rcall	.+3084   	; 0xd68 <main>
     15c:	07 cb       	rjmp	.-2546   	; 0xfffff76c <__eeprom_end+0xff7ef76c>

0000015e <__bad_interrupt>:
     15e:	50 cf       	rjmp	.-352    	; 0x0 <__vectors>

00000160 <ACEInit>:
     160:	bf 92       	push	r11
     162:	cf 92       	push	r12
     164:	df 92       	push	r13
     166:	ef 92       	push	r14
     168:	ff 92       	push	r15
     16a:	0f 93       	push	r16
     16c:	1f 93       	push	r17
     16e:	cf 93       	push	r28
     170:	df 93       	push	r29
     172:	dc 01       	movw	r26, r24
     174:	84 b1       	in	r24, 0x04	; 4
     176:	8c 7f       	andi	r24, 0xFC	; 252
     178:	84 b9       	out	0x04, r24	; 4
     17a:	87 b1       	in	r24, 0x07	; 7
     17c:	88 77       	andi	r24, 0x78	; 120
     17e:	87 b9       	out	0x07, r24	; 7
     180:	88 e0       	ldi	r24, 0x08	; 8
     182:	8a b9       	out	0x0a, r24	; 10
     184:	5b 9a       	sbi	0x0b, 3	; 11
     186:	5b 98       	cbi	0x0b, 3	; 11
     188:	00 00       	nop
     18a:	00 00       	nop
     18c:	00 00       	nop
     18e:	e6 b1       	in	r30, 0x06	; 6
     190:	86 b1       	in	r24, 0x06	; 6
     192:	56 b1       	in	r21, 0x06	; 6
     194:	36 b1       	in	r19, 0x06	; 6
     196:	99 b1       	in	r25, 0x09	; 9
     198:	49 b1       	in	r20, 0x09	; 9
     19a:	23 b1       	in	r18, 0x03	; 3
     19c:	b3 b0       	in	r11, 0x03	; 3
     19e:	0e 2e       	mov	r0, r30
     1a0:	00 0c       	add	r0, r0
     1a2:	ff 0b       	sbc	r31, r31
     1a4:	e0 95       	com	r30
     1a6:	f0 95       	com	r31
     1a8:	ee 27       	eor	r30, r30
     1aa:	ff 0f       	add	r31, r31
     1ac:	ee 1f       	adc	r30, r30
     1ae:	ff 27       	eor	r31, r31
     1b0:	f6 95       	lsr	r31
     1b2:	fe 2f       	mov	r31, r30
     1b4:	ee 27       	eor	r30, r30
     1b6:	f7 95       	ror	r31
     1b8:	e7 95       	ror	r30
     1ba:	81 70       	andi	r24, 0x01	; 1
     1bc:	e8 2e       	mov	r14, r24
     1be:	81 e0       	ldi	r24, 0x01	; 1
     1c0:	e8 26       	eor	r14, r24
     1c2:	f1 2c       	mov	r15, r1
     1c4:	00 24       	eor	r0, r0
     1c6:	f6 94       	lsr	r15
     1c8:	e7 94       	ror	r14
     1ca:	07 94       	ror	r0
     1cc:	f6 94       	lsr	r15
     1ce:	e7 94       	ror	r14
     1d0:	07 94       	ror	r0
     1d2:	fe 2c       	mov	r15, r14
     1d4:	e0 2c       	mov	r14, r0
     1d6:	ee 29       	or	r30, r14
     1d8:	ff 29       	or	r31, r15
     1da:	fb 2c       	mov	r15, r11
     1dc:	f6 94       	lsr	r15
     1de:	f8 26       	eor	r15, r24
     1e0:	f0 fa       	bst	r15, 0
     1e2:	cc 24       	eor	r12, r12
     1e4:	c0 f8       	bld	r12, 0
     1e6:	d1 2c       	mov	r13, r1
     1e8:	ec 29       	or	r30, r12
     1ea:	fd 29       	or	r31, r13
     1ec:	56 95       	lsr	r21
     1ee:	58 27       	eor	r21, r24
     1f0:	05 2f       	mov	r16, r21
     1f2:	01 70       	andi	r16, 0x01	; 1
     1f4:	10 e0       	ldi	r17, 0x00	; 0
     1f6:	00 0f       	add	r16, r16
     1f8:	11 1f       	adc	r17, r17
     1fa:	02 95       	swap	r16
     1fc:	12 95       	swap	r17
     1fe:	10 7f       	andi	r17, 0xF0	; 240
     200:	10 27       	eor	r17, r16
     202:	00 7f       	andi	r16, 0xF0	; 240
     204:	10 27       	eor	r17, r16
     206:	e0 2b       	or	r30, r16
     208:	f1 2b       	or	r31, r17
     20a:	36 95       	lsr	r19
     20c:	36 95       	lsr	r19
     20e:	38 27       	eor	r19, r24
     210:	31 70       	andi	r19, 0x01	; 1
     212:	c3 2f       	mov	r28, r19
     214:	30 e0       	ldi	r19, 0x00	; 0
     216:	d3 2f       	mov	r29, r19
     218:	c2 95       	swap	r28
     21a:	d2 95       	swap	r29
     21c:	d0 7f       	andi	r29, 0xF0	; 240
     21e:	dc 27       	eor	r29, r28
     220:	c0 7f       	andi	r28, 0xF0	; 240
     222:	dc 27       	eor	r29, r28
     224:	ec 2b       	or	r30, r28
     226:	fd 2b       	or	r31, r29
     228:	92 95       	swap	r25
     22a:	96 95       	lsr	r25
     22c:	96 95       	lsr	r25
     22e:	93 70       	andi	r25, 0x03	; 3
     230:	98 27       	eor	r25, r24
     232:	69 2f       	mov	r22, r25
     234:	61 70       	andi	r22, 0x01	; 1
     236:	70 e0       	ldi	r23, 0x00	; 0
     238:	66 0f       	add	r22, r22
     23a:	77 1f       	adc	r23, r23
     23c:	66 0f       	add	r22, r22
     23e:	77 1f       	adc	r23, r23
     240:	66 0f       	add	r22, r22
     242:	77 1f       	adc	r23, r23
     244:	e6 2b       	or	r30, r22
     246:	f7 2b       	or	r31, r23
     248:	04 2e       	mov	r0, r20
     24a:	00 0c       	add	r0, r0
     24c:	55 0b       	sbc	r21, r21
     24e:	40 95       	com	r20
     250:	50 95       	com	r21
     252:	44 27       	eor	r20, r20
     254:	55 0f       	add	r21, r21
     256:	44 1f       	adc	r20, r20
     258:	55 27       	eor	r21, r21
     25a:	44 0f       	add	r20, r20
     25c:	55 1f       	adc	r21, r21
     25e:	44 0f       	add	r20, r20
     260:	55 1f       	adc	r21, r21
     262:	e4 2b       	or	r30, r20
     264:	f5 2b       	or	r31, r21
     266:	21 70       	andi	r18, 0x01	; 1
     268:	28 27       	eor	r18, r24
     26a:	30 e0       	ldi	r19, 0x00	; 0
     26c:	22 0f       	add	r18, r18
     26e:	33 1f       	adc	r19, r19
     270:	e2 2b       	or	r30, r18
     272:	f3 2b       	or	r31, r19
     274:	e8 5d       	subi	r30, 0xD8	; 216
     276:	ff 4f       	sbci	r31, 0xFF	; 255
     278:	94 91       	lpm	r25, Z
     27a:	5b 9a       	sbi	0x0b, 3	; 11
     27c:	14 96       	adiw	r26, 0x04	; 4
     27e:	9c 93       	st	X, r25
     280:	14 97       	sbiw	r26, 0x04	; 4
     282:	9f e7       	ldi	r25, 0x7F	; 127
     284:	12 96       	adiw	r26, 0x02	; 2
     286:	9c 93       	st	X, r25
     288:	12 97       	sbiw	r26, 0x02	; 2
     28a:	16 96       	adiw	r26, 0x06	; 6
     28c:	8c 93       	st	X, r24
     28e:	df 91       	pop	r29
     290:	cf 91       	pop	r28
     292:	1f 91       	pop	r17
     294:	0f 91       	pop	r16
     296:	ff 90       	pop	r15
     298:	ef 90       	pop	r14
     29a:	df 90       	pop	r13
     29c:	cf 90       	pop	r12
     29e:	bf 90       	pop	r11
     2a0:	08 95       	ret

000002a2 <readACEQuick>:
     2a2:	cf 92       	push	r12
     2a4:	df 92       	push	r13
     2a6:	ef 92       	push	r14
     2a8:	ff 92       	push	r15
     2aa:	0f 93       	push	r16
     2ac:	1f 93       	push	r17
     2ae:	cf 93       	push	r28
     2b0:	df 93       	push	r29
     2b2:	5b 98       	cbi	0x0b, 3	; 11
     2b4:	00 00       	nop
     2b6:	00 00       	nop
     2b8:	00 00       	nop
     2ba:	46 b1       	in	r20, 0x06	; 6
     2bc:	96 b1       	in	r25, 0x06	; 6
     2be:	c6 b0       	in	r12, 0x06	; 6
     2c0:	d6 b0       	in	r13, 0x06	; 6
     2c2:	39 b1       	in	r19, 0x09	; 9
     2c4:	29 b1       	in	r18, 0x09	; 9
     2c6:	83 b1       	in	r24, 0x03	; 3
     2c8:	f3 b1       	in	r31, 0x03	; 3
     2ca:	04 2e       	mov	r0, r20
     2cc:	00 0c       	add	r0, r0
     2ce:	55 0b       	sbc	r21, r21
     2d0:	40 95       	com	r20
     2d2:	50 95       	com	r21
     2d4:	44 27       	eor	r20, r20
     2d6:	55 0f       	add	r21, r21
     2d8:	44 1f       	adc	r20, r20
     2da:	55 27       	eor	r21, r21
     2dc:	56 95       	lsr	r21
     2de:	54 2f       	mov	r21, r20
     2e0:	44 27       	eor	r20, r20
     2e2:	57 95       	ror	r21
     2e4:	47 95       	ror	r20
     2e6:	e9 2f       	mov	r30, r25
     2e8:	e1 70       	andi	r30, 0x01	; 1
     2ea:	91 e0       	ldi	r25, 0x01	; 1
     2ec:	ee 2e       	mov	r14, r30
     2ee:	e9 26       	eor	r14, r25
     2f0:	f1 2c       	mov	r15, r1
     2f2:	00 24       	eor	r0, r0
     2f4:	f6 94       	lsr	r15
     2f6:	e7 94       	ror	r14
     2f8:	07 94       	ror	r0
     2fa:	f6 94       	lsr	r15
     2fc:	e7 94       	ror	r14
     2fe:	07 94       	ror	r0
     300:	fe 2c       	mov	r15, r14
     302:	e0 2c       	mov	r14, r0
     304:	e4 2a       	or	r14, r20
     306:	f5 2a       	or	r15, r21
     308:	f6 95       	lsr	r31
     30a:	f9 27       	eor	r31, r25
     30c:	0f 2f       	mov	r16, r31
     30e:	01 70       	andi	r16, 0x01	; 1
     310:	10 e0       	ldi	r17, 0x00	; 0
     312:	f7 01       	movw	r30, r14
     314:	e0 2b       	or	r30, r16
     316:	f1 2b       	or	r31, r17
     318:	5c 2d       	mov	r21, r12
     31a:	56 95       	lsr	r21
     31c:	59 27       	eor	r21, r25
     31e:	51 70       	andi	r21, 0x01	; 1
     320:	c5 2f       	mov	r28, r21
     322:	40 e0       	ldi	r20, 0x00	; 0
     324:	d4 2f       	mov	r29, r20
     326:	cc 0f       	add	r28, r28
     328:	dd 1f       	adc	r29, r29
     32a:	c2 95       	swap	r28
     32c:	d2 95       	swap	r29
     32e:	d0 7f       	andi	r29, 0xF0	; 240
     330:	dc 27       	eor	r29, r28
     332:	c0 7f       	andi	r28, 0xF0	; 240
     334:	dc 27       	eor	r29, r28
     336:	ec 2b       	or	r30, r28
     338:	fd 2b       	or	r31, r29
     33a:	4d 2d       	mov	r20, r13
     33c:	46 95       	lsr	r20
     33e:	46 95       	lsr	r20
     340:	49 27       	eor	r20, r25
     342:	a4 2f       	mov	r26, r20
     344:	a1 70       	andi	r26, 0x01	; 1
     346:	b0 e0       	ldi	r27, 0x00	; 0
     348:	a2 95       	swap	r26
     34a:	b2 95       	swap	r27
     34c:	b0 7f       	andi	r27, 0xF0	; 240
     34e:	ba 27       	eor	r27, r26
     350:	a0 7f       	andi	r26, 0xF0	; 240
     352:	ba 27       	eor	r27, r26
     354:	ea 2b       	or	r30, r26
     356:	fb 2b       	or	r31, r27
     358:	32 95       	swap	r19
     35a:	36 95       	lsr	r19
     35c:	36 95       	lsr	r19
     35e:	33 70       	andi	r19, 0x03	; 3
     360:	39 27       	eor	r19, r25
     362:	63 2f       	mov	r22, r19
     364:	61 70       	andi	r22, 0x01	; 1
     366:	70 e0       	ldi	r23, 0x00	; 0
     368:	66 0f       	add	r22, r22
     36a:	77 1f       	adc	r23, r23
     36c:	66 0f       	add	r22, r22
     36e:	77 1f       	adc	r23, r23
     370:	66 0f       	add	r22, r22
     372:	77 1f       	adc	r23, r23
     374:	e6 2b       	or	r30, r22
     376:	f7 2b       	or	r31, r23
     378:	02 2e       	mov	r0, r18
     37a:	00 0c       	add	r0, r0
     37c:	33 0b       	sbc	r19, r19
     37e:	20 95       	com	r18
     380:	30 95       	com	r19
     382:	22 27       	eor	r18, r18
     384:	33 0f       	add	r19, r19
     386:	22 1f       	adc	r18, r18
     388:	33 27       	eor	r19, r19
     38a:	22 0f       	add	r18, r18
     38c:	33 1f       	adc	r19, r19
     38e:	22 0f       	add	r18, r18
     390:	33 1f       	adc	r19, r19
     392:	e2 2b       	or	r30, r18
     394:	f3 2b       	or	r31, r19
     396:	81 70       	andi	r24, 0x01	; 1
     398:	98 27       	eor	r25, r24
     39a:	89 2f       	mov	r24, r25
     39c:	90 e0       	ldi	r25, 0x00	; 0
     39e:	88 0f       	add	r24, r24
     3a0:	99 1f       	adc	r25, r25
     3a2:	e8 2b       	or	r30, r24
     3a4:	f9 2b       	or	r31, r25
     3a6:	e8 5d       	subi	r30, 0xD8	; 216
     3a8:	ff 4f       	sbci	r31, 0xFF	; 255
     3aa:	84 91       	lpm	r24, Z
     3ac:	5b 9a       	sbi	0x0b, 3	; 11
     3ae:	df 91       	pop	r29
     3b0:	cf 91       	pop	r28
     3b2:	1f 91       	pop	r17
     3b4:	0f 91       	pop	r16
     3b6:	ff 90       	pop	r15
     3b8:	ef 90       	pop	r14
     3ba:	df 90       	pop	r13
     3bc:	cf 90       	pop	r12
     3be:	08 95       	ret

000003c0 <absoluteToRelative>:
     3c0:	fc 01       	movw	r30, r24
     3c2:	24 81       	ldd	r18, Z+4	; 0x04
     3c4:	43 81       	ldd	r20, Z+3	; 0x03
     3c6:	26 37       	cpi	r18, 0x76	; 118
     3c8:	10 f1       	brcs	.+68     	; 0x40e <__LOCK_REGION_LENGTH__+0xe>
     3ca:	4a 30       	cpi	r20, 0x0A	; 10
     3cc:	58 f1       	brcs	.+86     	; 0x424 <__LOCK_REGION_LENGTH__+0x24>
     3ce:	84 2f       	mov	r24, r20
     3d0:	90 e0       	ldi	r25, 0x00	; 0
     3d2:	82 1b       	sub	r24, r18
     3d4:	91 09       	sbc	r25, r1
     3d6:	20 81       	ld	r18, Z
     3d8:	31 81       	ldd	r19, Z+1	; 0x01
     3da:	28 0f       	add	r18, r24
     3dc:	39 1f       	adc	r19, r25
     3de:	31 83       	std	Z+1, r19	; 0x01
     3e0:	20 83       	st	Z, r18
     3e2:	44 83       	std	Z+4, r20	; 0x04
     3e4:	40 81       	ld	r20, Z
     3e6:	51 81       	ldd	r21, Z+1	; 0x01
     3e8:	22 81       	ldd	r18, Z+2	; 0x02
     3ea:	30 e0       	ldi	r19, 0x00	; 0
     3ec:	24 17       	cp	r18, r20
     3ee:	35 07       	cpc	r19, r21
     3f0:	24 f4       	brge	.+8      	; 0x3fa <absoluteToRelative+0x3a>
     3f2:	22 81       	ldd	r18, Z+2	; 0x02
     3f4:	30 e0       	ldi	r19, 0x00	; 0
     3f6:	31 83       	std	Z+1, r19	; 0x01
     3f8:	20 83       	st	Z, r18
     3fa:	20 81       	ld	r18, Z
     3fc:	31 81       	ldd	r19, Z+1	; 0x01
     3fe:	37 fd       	sbrc	r19, 7
     400:	18 c0       	rjmp	.+48     	; 0x432 <__LOCK_REGION_LENGTH__+0x32>
     402:	89 2b       	or	r24, r25
     404:	19 f0       	breq	.+6      	; 0x40c <__LOCK_REGION_LENGTH__+0xc>
     406:	81 e0       	ldi	r24, 0x01	; 1
     408:	85 83       	std	Z+5, r24	; 0x05
     40a:	86 83       	std	Z+6, r24	; 0x06
     40c:	08 95       	ret
     40e:	2f 30       	cpi	r18, 0x0F	; 15
     410:	f0 f6       	brcc	.-68     	; 0x3ce <absoluteToRelative+0xe>
     412:	4f 36       	cpi	r20, 0x6F	; 111
     414:	e0 f2       	brcs	.-72     	; 0x3ce <absoluteToRelative+0xe>
     416:	84 2f       	mov	r24, r20
     418:	90 e0       	ldi	r25, 0x00	; 0
     41a:	82 1b       	sub	r24, r18
     41c:	91 09       	sbc	r25, r1
     41e:	80 58       	subi	r24, 0x80	; 128
     420:	91 09       	sbc	r25, r1
     422:	d9 cf       	rjmp	.-78     	; 0x3d6 <absoluteToRelative+0x16>
     424:	84 2f       	mov	r24, r20
     426:	90 e0       	ldi	r25, 0x00	; 0
     428:	82 1b       	sub	r24, r18
     42a:	91 09       	sbc	r25, r1
     42c:	80 58       	subi	r24, 0x80	; 128
     42e:	9f 4f       	sbci	r25, 0xFF	; 255
     430:	d2 cf       	rjmp	.-92     	; 0x3d6 <absoluteToRelative+0x16>
     432:	11 82       	std	Z+1, r1	; 0x01
     434:	10 82       	st	Z, r1
     436:	e5 cf       	rjmp	.-54     	; 0x402 <__LOCK_REGION_LENGTH__+0x2>

00000438 <timersInit>:
     438:	2c e0       	ldi	r18, 0x0C	; 12
     43a:	25 bd       	out	0x25, r18	; 37
     43c:	2e e1       	ldi	r18, 0x1E	; 30
     43e:	27 bd       	out	0x27, r18	; 39
     440:	22 e0       	ldi	r18, 0x02	; 2
     442:	20 93 6e 00 	sts	0x006E, r18	; 0x80006e <__TEXT_REGION_LENGTH__+0x7fe06e>
     446:	16 bc       	out	0x26, r1	; 38
     448:	21 e0       	ldi	r18, 0x01	; 1
     44a:	fc 01       	movw	r30, r24
     44c:	24 83       	std	Z+4, r18	; 0x04
     44e:	08 95       	ret

00000450 <enableHSKP>:
     450:	21 e0       	ldi	r18, 0x01	; 1
     452:	fc 01       	movw	r30, r24
     454:	24 83       	std	Z+4, r18	; 0x04
     456:	08 95       	ret

00000458 <disableHSKP>:
     458:	fc 01       	movw	r30, r24
     45a:	14 82       	std	Z+4, r1	; 0x04
     45c:	08 95       	ret

0000045e <getTick>:
     45e:	fc 01       	movw	r30, r24
     460:	80 81       	ld	r24, Z
     462:	91 81       	ldd	r25, Z+1	; 0x01
     464:	a2 81       	ldd	r26, Z+2	; 0x02
     466:	b3 81       	ldd	r27, Z+3	; 0x03
     468:	08 95       	ret

0000046a <__vector_12>:
     46a:	78 94       	sei
     46c:	1f 92       	push	r1
     46e:	0f 92       	push	r0
     470:	0f b6       	in	r0, 0x3f	; 63
     472:	0f 92       	push	r0
     474:	11 24       	eor	r1, r1
     476:	2f 93       	push	r18
     478:	3f 93       	push	r19
     47a:	4f 93       	push	r20
     47c:	5f 93       	push	r21
     47e:	6f 93       	push	r22
     480:	7f 93       	push	r23
     482:	8f 93       	push	r24
     484:	9f 93       	push	r25
     486:	af 93       	push	r26
     488:	bf 93       	push	r27
     48a:	ef 93       	push	r30
     48c:	ff 93       	push	r31
     48e:	80 91 6e 00 	lds	r24, 0x006E	; 0x80006e <__TEXT_REGION_LENGTH__+0x7fe06e>
     492:	8d 7f       	andi	r24, 0xFD	; 253
     494:	80 93 6e 00 	sts	0x006E, r24	; 0x80006e <__TEXT_REGION_LENGTH__+0x7fe06e>
     498:	80 91 2e 01 	lds	r24, 0x012E	; 0x80012e <housekp+0x5>
     49c:	81 30       	cpi	r24, 0x01	; 1
     49e:	09 f4       	brne	.+2      	; 0x4a2 <__vector_12+0x38>
     4a0:	51 c0       	rjmp	.+162    	; 0x544 <__vector_12+0xda>
     4a2:	80 91 2e 01 	lds	r24, 0x012E	; 0x80012e <housekp+0x5>
     4a6:	8a 30       	cpi	r24, 0x0A	; 10
     4a8:	f8 f0       	brcs	.+62     	; 0x4e8 <__vector_12+0x7e>
     4aa:	80 91 2d 01 	lds	r24, 0x012D	; 0x80012d <housekp+0x4>
     4ae:	88 23       	and	r24, r24
     4b0:	d9 f0       	breq	.+54     	; 0x4e8 <__vector_12+0x7e>
     4b2:	80 91 0b 02 	lds	r24, 0x020B	; 0x80020b <led_settings+0x60>
     4b6:	81 11       	cpse	r24, r1
     4b8:	0e c0       	rjmp	.+28     	; 0x4d6 <__vector_12+0x6c>
     4ba:	80 91 28 01 	lds	r24, 0x0128	; 0x800128 <ace_rot+0x6>
     4be:	88 23       	and	r24, r24
     4c0:	51 f0       	breq	.+20     	; 0x4d6 <__vector_12+0x6c>
     4c2:	40 91 22 01 	lds	r20, 0x0122	; 0x800122 <ace_rot>
     4c6:	50 91 23 01 	lds	r21, 0x0123	; 0x800123 <ace_rot+0x1>
     4ca:	62 e2       	ldi	r22, 0x22	; 34
     4cc:	71 e0       	ldi	r23, 0x01	; 1
     4ce:	8b ea       	ldi	r24, 0xAB	; 171
     4d0:	91 e0       	ldi	r25, 0x01	; 1
     4d2:	fc d1       	rcall	.+1016   	; 0x8cc <set_ring>
     4d4:	05 c0       	rjmp	.+10     	; 0x4e0 <__vector_12+0x76>
     4d6:	80 91 0b 02 	lds	r24, 0x020B	; 0x80020b <led_settings+0x60>
     4da:	81 30       	cpi	r24, 0x01	; 1
     4dc:	09 f4       	brne	.+2      	; 0x4e0 <__vector_12+0x76>
     4de:	43 c0       	rjmp	.+134    	; 0x566 <__vector_12+0xfc>
     4e0:	10 92 28 01 	sts	0x0128, r1	; 0x800128 <ace_rot+0x6>
     4e4:	10 92 2e 01 	sts	0x012E, r1	; 0x80012e <housekp+0x5>
     4e8:	80 91 6e 00 	lds	r24, 0x006E	; 0x80006e <__TEXT_REGION_LENGTH__+0x7fe06e>
     4ec:	82 60       	ori	r24, 0x02	; 2
     4ee:	80 93 6e 00 	sts	0x006E, r24	; 0x80006e <__TEXT_REGION_LENGTH__+0x7fe06e>
     4f2:	80 91 2e 01 	lds	r24, 0x012E	; 0x80012e <housekp+0x5>
     4f6:	8f 5f       	subi	r24, 0xFF	; 255
     4f8:	80 93 2e 01 	sts	0x012E, r24	; 0x80012e <housekp+0x5>
     4fc:	80 91 29 01 	lds	r24, 0x0129	; 0x800129 <housekp>
     500:	90 91 2a 01 	lds	r25, 0x012A	; 0x80012a <housekp+0x1>
     504:	a0 91 2b 01 	lds	r26, 0x012B	; 0x80012b <housekp+0x2>
     508:	b0 91 2c 01 	lds	r27, 0x012C	; 0x80012c <housekp+0x3>
     50c:	01 96       	adiw	r24, 0x01	; 1
     50e:	a1 1d       	adc	r26, r1
     510:	b1 1d       	adc	r27, r1
     512:	80 93 29 01 	sts	0x0129, r24	; 0x800129 <housekp>
     516:	90 93 2a 01 	sts	0x012A, r25	; 0x80012a <housekp+0x1>
     51a:	a0 93 2b 01 	sts	0x012B, r26	; 0x80012b <housekp+0x2>
     51e:	b0 93 2c 01 	sts	0x012C, r27	; 0x80012c <housekp+0x3>
     522:	ff 91       	pop	r31
     524:	ef 91       	pop	r30
     526:	bf 91       	pop	r27
     528:	af 91       	pop	r26
     52a:	9f 91       	pop	r25
     52c:	8f 91       	pop	r24
     52e:	7f 91       	pop	r23
     530:	6f 91       	pop	r22
     532:	5f 91       	pop	r21
     534:	4f 91       	pop	r20
     536:	3f 91       	pop	r19
     538:	2f 91       	pop	r18
     53a:	0f 90       	pop	r0
     53c:	0f be       	out	0x3f, r0	; 63
     53e:	0f 90       	pop	r0
     540:	1f 90       	pop	r1
     542:	18 95       	reti
     544:	80 91 2d 01 	lds	r24, 0x012D	; 0x80012d <housekp+0x4>
     548:	88 23       	and	r24, r24
     54a:	09 f4       	brne	.+2      	; 0x54e <__vector_12+0xe4>
     54c:	aa cf       	rjmp	.-172    	; 0x4a2 <__vector_12+0x38>
     54e:	80 91 0f 02 	lds	r24, 0x020F	; 0x80020f <led_settings+0x64>
     552:	88 23       	and	r24, r24
     554:	09 f4       	brne	.+2      	; 0x558 <__vector_12+0xee>
     556:	a5 cf       	rjmp	.-182    	; 0x4a2 <__vector_12+0x38>
     558:	a4 de       	rcall	.-696    	; 0x2a2 <readACEQuick>
     55a:	80 93 25 01 	sts	0x0125, r24	; 0x800125 <ace_rot+0x3>
     55e:	82 e2       	ldi	r24, 0x22	; 34
     560:	91 e0       	ldi	r25, 0x01	; 1
     562:	2e df       	rcall	.-420    	; 0x3c0 <absoluteToRelative>
     564:	c1 cf       	rjmp	.-126    	; 0x4e8 <__vector_12+0x7e>
     566:	8b ea       	ldi	r24, 0xAB	; 171
     568:	91 e0       	ldi	r25, 0x01	; 1
     56a:	b2 d0       	rcall	.+356    	; 0x6d0 <setLEDArray>
     56c:	b9 cf       	rjmp	.-142    	; 0x4e0 <__vector_12+0x76>

0000056e <I2CInit>:
     56e:	80 e2       	ldi	r24, 0x20	; 32
     570:	80 93 b8 00 	sts	0x00B8, r24	; 0x8000b8 <__TEXT_REGION_LENGTH__+0x7fe0b8>
     574:	e9 eb       	ldi	r30, 0xB9	; 185
     576:	f0 e0       	ldi	r31, 0x00	; 0
     578:	80 81       	ld	r24, Z
     57a:	80 83       	st	Z, r24
     57c:	08 95       	ret

0000057e <I2CStart>:
     57e:	90 91 bc 00 	lds	r25, 0x00BC	; 0x8000bc <__TEXT_REGION_LENGTH__+0x7fe0bc>
     582:	94 6a       	ori	r25, 0xA4	; 164
     584:	90 93 bc 00 	sts	0x00BC, r25	; 0x8000bc <__TEXT_REGION_LENGTH__+0x7fe0bc>
     588:	90 91 bc 00 	lds	r25, 0x00BC	; 0x8000bc <__TEXT_REGION_LENGTH__+0x7fe0bc>
     58c:	97 ff       	sbrs	r25, 7
     58e:	fc cf       	rjmp	.-8      	; 0x588 <I2CStart+0xa>
     590:	90 91 b9 00 	lds	r25, 0x00B9	; 0x8000b9 <__TEXT_REGION_LENGTH__+0x7fe0b9>
     594:	98 7f       	andi	r25, 0xF8	; 248
     596:	98 30       	cpi	r25, 0x08	; 8
     598:	39 f0       	breq	.+14     	; 0x5a8 <I2CStart+0x2a>
     59a:	90 91 b9 00 	lds	r25, 0x00B9	; 0x8000b9 <__TEXT_REGION_LENGTH__+0x7fe0b9>
     59e:	98 7f       	andi	r25, 0xF8	; 248
     5a0:	90 31       	cpi	r25, 0x10	; 16
     5a2:	11 f0       	breq	.+4      	; 0x5a8 <I2CStart+0x2a>
     5a4:	81 e0       	ldi	r24, 0x01	; 1
     5a6:	08 95       	ret
     5a8:	88 0f       	add	r24, r24
     5aa:	68 2b       	or	r22, r24
     5ac:	60 93 bb 00 	sts	0x00BB, r22	; 0x8000bb <__TEXT_REGION_LENGTH__+0x7fe0bb>
     5b0:	84 e8       	ldi	r24, 0x84	; 132
     5b2:	80 93 bc 00 	sts	0x00BC, r24	; 0x8000bc <__TEXT_REGION_LENGTH__+0x7fe0bc>
     5b6:	80 91 bc 00 	lds	r24, 0x00BC	; 0x8000bc <__TEXT_REGION_LENGTH__+0x7fe0bc>
     5ba:	87 ff       	sbrs	r24, 7
     5bc:	fc cf       	rjmp	.-8      	; 0x5b6 <I2CStart+0x38>
     5be:	80 91 b9 00 	lds	r24, 0x00B9	; 0x8000b9 <__TEXT_REGION_LENGTH__+0x7fe0b9>
     5c2:	88 7f       	andi	r24, 0xF8	; 248
     5c4:	88 31       	cpi	r24, 0x18	; 24
     5c6:	29 f0       	breq	.+10     	; 0x5d2 <I2CStart+0x54>
     5c8:	80 91 b9 00 	lds	r24, 0x00B9	; 0x8000b9 <__TEXT_REGION_LENGTH__+0x7fe0b9>
     5cc:	88 7f       	andi	r24, 0xF8	; 248
     5ce:	80 34       	cpi	r24, 0x40	; 64
     5d0:	49 f7       	brne	.-46     	; 0x5a4 <I2CStart+0x26>
     5d2:	80 e0       	ldi	r24, 0x00	; 0
     5d4:	08 95       	ret

000005d6 <I2CStop>:
     5d6:	84 e9       	ldi	r24, 0x94	; 148
     5d8:	80 93 bc 00 	sts	0x00BC, r24	; 0x8000bc <__TEXT_REGION_LENGTH__+0x7fe0bc>
     5dc:	08 95       	ret

000005de <I2CWrite>:
     5de:	80 93 bb 00 	sts	0x00BB, r24	; 0x8000bb <__TEXT_REGION_LENGTH__+0x7fe0bb>
     5e2:	84 e8       	ldi	r24, 0x84	; 132
     5e4:	80 93 bc 00 	sts	0x00BC, r24	; 0x8000bc <__TEXT_REGION_LENGTH__+0x7fe0bc>
     5e8:	80 91 bc 00 	lds	r24, 0x00BC	; 0x8000bc <__TEXT_REGION_LENGTH__+0x7fe0bc>
     5ec:	87 ff       	sbrs	r24, 7
     5ee:	fc cf       	rjmp	.-8      	; 0x5e8 <I2CWrite+0xa>
     5f0:	90 91 b9 00 	lds	r25, 0x00B9	; 0x8000b9 <__TEXT_REGION_LENGTH__+0x7fe0b9>
     5f4:	98 7f       	andi	r25, 0xF8	; 248
     5f6:	81 e0       	ldi	r24, 0x01	; 1
     5f8:	98 32       	cpi	r25, 0x28	; 40
     5fa:	09 f0       	breq	.+2      	; 0x5fe <I2CWrite+0x20>
     5fc:	08 95       	ret
     5fe:	80 e0       	ldi	r24, 0x00	; 0
     600:	08 95       	ret

00000602 <LEDInit>:
     602:	0f 93       	push	r16
     604:	1f 93       	push	r17
     606:	cf 93       	push	r28
     608:	8c 01       	movw	r16, r24
     60a:	60 e0       	ldi	r22, 0x00	; 0
     60c:	84 e3       	ldi	r24, 0x34	; 52
     60e:	b7 df       	rcall	.-146    	; 0x57e <I2CStart>
     610:	88 23       	and	r24, r24
     612:	09 f4       	brne	.+2      	; 0x616 <LEDInit+0x14>
     614:	53 c0       	rjmp	.+166    	; 0x6bc <LEDInit+0xba>
     616:	60 e0       	ldi	r22, 0x00	; 0
     618:	84 e3       	ldi	r24, 0x34	; 52
     61a:	b1 df       	rcall	.-158    	; 0x57e <I2CStart>
     61c:	88 23       	and	r24, r24
     61e:	09 f4       	brne	.+2      	; 0x622 <LEDInit+0x20>
     620:	43 c0       	rjmp	.+134    	; 0x6a8 <LEDInit+0xa6>
     622:	60 e0       	ldi	r22, 0x00	; 0
     624:	84 e3       	ldi	r24, 0x34	; 52
     626:	ab df       	rcall	.-170    	; 0x57e <I2CStart>
     628:	88 23       	and	r24, r24
     62a:	a1 f1       	breq	.+104    	; 0x694 <LEDInit+0x92>
     62c:	c0 e9       	ldi	r28, 0x90	; 144
     62e:	03 c0       	rjmp	.+6      	; 0x636 <LEDInit+0x34>
     630:	cf 5f       	subi	r28, 0xFF	; 255
     632:	cf 39       	cpi	r28, 0x9F	; 159
     634:	89 f0       	breq	.+34     	; 0x658 <LEDInit+0x56>
     636:	60 e0       	ldi	r22, 0x00	; 0
     638:	84 e3       	ldi	r24, 0x34	; 52
     63a:	a1 df       	rcall	.-190    	; 0x57e <I2CStart>
     63c:	81 11       	cpse	r24, r1
     63e:	f8 cf       	rjmp	.-16     	; 0x630 <LEDInit+0x2e>
     640:	8c 2f       	mov	r24, r28
     642:	cd df       	rcall	.-102    	; 0x5de <I2CWrite>
     644:	81 11       	cpse	r24, r1
     646:	f4 cf       	rjmp	.-24     	; 0x630 <LEDInit+0x2e>
     648:	8c e3       	ldi	r24, 0x3C	; 60
     64a:	c9 df       	rcall	.-110    	; 0x5de <I2CWrite>
     64c:	81 11       	cpse	r24, r1
     64e:	f0 cf       	rjmp	.-32     	; 0x630 <LEDInit+0x2e>
     650:	c2 df       	rcall	.-124    	; 0x5d6 <I2CStop>
     652:	cf 5f       	subi	r28, 0xFF	; 255
     654:	cf 39       	cpi	r28, 0x9F	; 159
     656:	79 f7       	brne	.-34     	; 0x636 <LEDInit+0x34>
     658:	f8 01       	movw	r30, r16
     65a:	ec 59       	subi	r30, 0x9C	; 156
     65c:	ff 4f       	sbci	r31, 0xFF	; 255
     65e:	81 e0       	ldi	r24, 0x01	; 1
     660:	80 83       	st	Z, r24
     662:	3a 97       	sbiw	r30, 0x0a	; 10
     664:	8f ef       	ldi	r24, 0xFF	; 255
     666:	80 83       	st	Z, r24
     668:	31 96       	adiw	r30, 0x01	; 1
     66a:	10 82       	st	Z, r1
     66c:	31 96       	adiw	r30, 0x01	; 1
     66e:	10 82       	st	Z, r1
     670:	31 96       	adiw	r30, 0x01	; 1
     672:	10 82       	st	Z, r1
     674:	31 96       	adiw	r30, 0x01	; 1
     676:	80 83       	st	Z, r24
     678:	31 96       	adiw	r30, 0x01	; 1
     67a:	80 83       	st	Z, r24
     67c:	32 96       	adiw	r30, 0x02	; 2
     67e:	83 e1       	ldi	r24, 0x13	; 19
     680:	80 83       	st	Z, r24
     682:	31 96       	adiw	r30, 0x01	; 1
     684:	8b e0       	ldi	r24, 0x0B	; 11
     686:	80 83       	st	Z, r24
     688:	3b 9a       	sbi	0x07, 3	; 7
     68a:	43 9a       	sbi	0x08, 3	; 8
     68c:	cf 91       	pop	r28
     68e:	1f 91       	pop	r17
     690:	0f 91       	pop	r16
     692:	08 95       	ret
     694:	81 ea       	ldi	r24, 0xA1	; 161
     696:	a3 df       	rcall	.-186    	; 0x5de <I2CWrite>
     698:	81 11       	cpse	r24, r1
     69a:	c8 cf       	rjmp	.-112    	; 0x62c <LEDInit+0x2a>
     69c:	8e e1       	ldi	r24, 0x1E	; 30
     69e:	9f df       	rcall	.-194    	; 0x5de <I2CWrite>
     6a0:	81 11       	cpse	r24, r1
     6a2:	c4 cf       	rjmp	.-120    	; 0x62c <LEDInit+0x2a>
     6a4:	98 df       	rcall	.-208    	; 0x5d6 <I2CStop>
     6a6:	c2 cf       	rjmp	.-124    	; 0x62c <LEDInit+0x2a>
     6a8:	80 ea       	ldi	r24, 0xA0	; 160
     6aa:	99 df       	rcall	.-206    	; 0x5de <I2CWrite>
     6ac:	81 11       	cpse	r24, r1
     6ae:	b9 cf       	rjmp	.-142    	; 0x622 <LEDInit+0x20>
     6b0:	81 e0       	ldi	r24, 0x01	; 1
     6b2:	95 df       	rcall	.-214    	; 0x5de <I2CWrite>
     6b4:	81 11       	cpse	r24, r1
     6b6:	b5 cf       	rjmp	.-150    	; 0x622 <LEDInit+0x20>
     6b8:	8e df       	rcall	.-228    	; 0x5d6 <I2CStop>
     6ba:	b3 cf       	rjmp	.-154    	; 0x622 <LEDInit+0x20>
     6bc:	8f ec       	ldi	r24, 0xCF	; 207
     6be:	8f df       	rcall	.-226    	; 0x5de <I2CWrite>
     6c0:	81 11       	cpse	r24, r1
     6c2:	a9 cf       	rjmp	.-174    	; 0x616 <LEDInit+0x14>
     6c4:	8e ea       	ldi	r24, 0xAE	; 174
     6c6:	8b df       	rcall	.-234    	; 0x5de <I2CWrite>
     6c8:	81 11       	cpse	r24, r1
     6ca:	a5 cf       	rjmp	.-182    	; 0x616 <LEDInit+0x14>
     6cc:	84 df       	rcall	.-248    	; 0x5d6 <I2CStop>
     6ce:	a3 cf       	rjmp	.-186    	; 0x616 <LEDInit+0x14>

000006d0 <setLEDArray>:
     6d0:	8f 92       	push	r8
     6d2:	9f 92       	push	r9
     6d4:	bf 92       	push	r11
     6d6:	cf 92       	push	r12
     6d8:	df 92       	push	r13
     6da:	ef 92       	push	r14
     6dc:	ff 92       	push	r15
     6de:	0f 93       	push	r16
     6e0:	1f 93       	push	r17
     6e2:	cf 93       	push	r28
     6e4:	df 93       	push	r29
     6e6:	20 e0       	ldi	r18, 0x00	; 0
     6e8:	c2 2e       	mov	r12, r18
     6ea:	21 e0       	ldi	r18, 0x01	; 1
     6ec:	d2 2e       	mov	r13, r18
     6ee:	7c 01       	movw	r14, r24
     6f0:	36 e0       	ldi	r19, 0x06	; 6
     6f2:	83 2e       	mov	r8, r19
     6f4:	31 e0       	ldi	r19, 0x01	; 1
     6f6:	93 2e       	mov	r9, r19
     6f8:	f6 01       	movw	r30, r12
     6fa:	c1 91       	ld	r28, Z+
     6fc:	6f 01       	movw	r12, r30
     6fe:	60 e0       	ldi	r22, 0x00	; 0
     700:	84 e3       	ldi	r24, 0x34	; 52
     702:	3d df       	rcall	.-390    	; 0x57e <I2CStart>
     704:	81 11       	cpse	r24, r1
     706:	27 c0       	rjmp	.+78     	; 0x756 <setLEDArray+0x86>
     708:	8c 2f       	mov	r24, r28
     70a:	69 df       	rcall	.-302    	; 0x5de <I2CWrite>
     70c:	b8 2e       	mov	r11, r24
     70e:	81 11       	cpse	r24, r1
     710:	22 c0       	rjmp	.+68     	; 0x756 <setLEDArray+0x86>
     712:	87 01       	movw	r16, r14
     714:	02 5e       	subi	r16, 0xE2	; 226
     716:	1f 4f       	sbci	r17, 0xFF	; 255
     718:	e7 01       	movw	r28, r14
     71a:	88 81       	ld	r24, Y
     71c:	60 df       	rcall	.-320    	; 0x5de <I2CWrite>
     71e:	89 81       	ldd	r24, Y+1	; 0x01
     720:	5e df       	rcall	.-324    	; 0x5de <I2CWrite>
     722:	8a 81       	ldd	r24, Y+2	; 0x02
     724:	5c df       	rcall	.-328    	; 0x5de <I2CWrite>
     726:	26 96       	adiw	r28, 0x06	; 6
     728:	c0 17       	cp	r28, r16
     72a:	d1 07       	cpc	r29, r17
     72c:	b1 f7       	brne	.-20     	; 0x71a <setLEDArray+0x4a>
     72e:	ff ef       	ldi	r31, 0xFF	; 255
     730:	ef 1a       	sub	r14, r31
     732:	ff 0a       	sbc	r15, r31
     734:	8c 14       	cp	r8, r12
     736:	9d 04       	cpc	r9, r13
     738:	f9 f6       	brne	.-66     	; 0x6f8 <setLEDArray+0x28>
     73a:	4d df       	rcall	.-358    	; 0x5d6 <I2CStop>
     73c:	8b 2d       	mov	r24, r11
     73e:	df 91       	pop	r29
     740:	cf 91       	pop	r28
     742:	1f 91       	pop	r17
     744:	0f 91       	pop	r16
     746:	ff 90       	pop	r15
     748:	ef 90       	pop	r14
     74a:	df 90       	pop	r13
     74c:	cf 90       	pop	r12
     74e:	bf 90       	pop	r11
     750:	9f 90       	pop	r9
     752:	8f 90       	pop	r8
     754:	08 95       	ret
     756:	bb 24       	eor	r11, r11
     758:	b3 94       	inc	r11
     75a:	f0 cf       	rjmp	.-32     	; 0x73c <setLEDArray+0x6c>

0000075c <setDEMOLEDRgb>:
     75c:	8f 92       	push	r8
     75e:	9f 92       	push	r9
     760:	af 92       	push	r10
     762:	bf 92       	push	r11
     764:	cf 92       	push	r12
     766:	df 92       	push	r13
     768:	ef 92       	push	r14
     76a:	ff 92       	push	r15
     76c:	0f 93       	push	r16
     76e:	1f 93       	push	r17
     770:	cf 93       	push	r28
     772:	df 93       	push	r29
     774:	00 d0       	rcall	.+0      	; 0x776 <setDEMOLEDRgb+0x1a>
     776:	00 d0       	rcall	.+0      	; 0x778 <setDEMOLEDRgb+0x1c>
     778:	cd b7       	in	r28, 0x3d	; 61
     77a:	de b7       	in	r29, 0x3e	; 62
     77c:	a8 2e       	mov	r10, r24
     77e:	b1 2c       	mov	r11, r1
     780:	75 01       	movw	r14, r10
     782:	91 e0       	ldi	r25, 0x01	; 1
     784:	e9 1a       	sub	r14, r25
     786:	f1 08       	sbc	r15, r1
     788:	e1 ee       	ldi	r30, 0xE1	; 225
     78a:	e8 0f       	add	r30, r24
     78c:	ea 83       	std	Y+2, r30	; 0x02
     78e:	8d 53       	subi	r24, 0x3D	; 61
     790:	89 83       	std	Y+1, r24	; 0x01
     792:	00 e0       	ldi	r16, 0x00	; 0
     794:	11 e0       	ldi	r17, 0x01	; 1
     796:	1c 82       	std	Y+4, r1	; 0x04
     798:	1b 82       	std	Y+3, r1	; 0x03
     79a:	c1 2c       	mov	r12, r1
     79c:	45 01       	movw	r8, r10
     79e:	fe e1       	ldi	r31, 0x1E	; 30
     7a0:	8f 1a       	sub	r8, r31
     7a2:	91 08       	sbc	r9, r1
     7a4:	8c e3       	ldi	r24, 0x3C	; 60
     7a6:	a8 1a       	sub	r10, r24
     7a8:	b1 08       	sbc	r11, r1
     7aa:	17 c0       	rjmp	.+46     	; 0x7da <setDEMOLEDRgb+0x7e>
     7ac:	9a 81       	ldd	r25, Y+2	; 0x02
     7ae:	9f 31       	cpi	r25, 0x1F	; 31
     7b0:	10 f5       	brcc	.+68     	; 0x7f6 <setDEMOLEDRgb+0x9a>
     7b2:	f8 01       	movw	r30, r16
     7b4:	d0 80       	ld	r13, Z
     7b6:	60 e0       	ldi	r22, 0x00	; 0
     7b8:	84 e3       	ldi	r24, 0x34	; 52
     7ba:	e1 de       	rcall	.-574    	; 0x57e <I2CStart>
     7bc:	88 23       	and	r24, r24
     7be:	09 f4       	brne	.+2      	; 0x7c2 <setDEMOLEDRgb+0x66>
     7c0:	7a c0       	rjmp	.+244    	; 0x8b6 <setDEMOLEDRgb+0x15a>
     7c2:	90 e3       	ldi	r25, 0x30	; 48
     7c4:	c9 2e       	mov	r12, r25
     7c6:	8b 81       	ldd	r24, Y+3	; 0x03
     7c8:	9c 81       	ldd	r25, Y+4	; 0x04
     7ca:	01 96       	adiw	r24, 0x01	; 1
     7cc:	9c 83       	std	Y+4, r25	; 0x04
     7ce:	8b 83       	std	Y+3, r24	; 0x03
     7d0:	0f 5f       	subi	r16, 0xFF	; 255
     7d2:	1f 4f       	sbci	r17, 0xFF	; 255
     7d4:	4e 97       	sbiw	r24, 0x1e	; 30
     7d6:	09 f4       	brne	.+2      	; 0x7da <setDEMOLEDRgb+0x7e>
     7d8:	52 c0       	rjmp	.+164    	; 0x87e <setDEMOLEDRgb+0x122>
     7da:	eb 81       	ldd	r30, Y+3	; 0x03
     7dc:	fc 81       	ldd	r31, Y+4	; 0x04
     7de:	ee 16       	cp	r14, r30
     7e0:	ff 06       	cpc	r15, r31
     7e2:	24 f0       	brlt	.+8      	; 0x7ec <setDEMOLEDRgb+0x90>
     7e4:	ff e1       	ldi	r31, 0x1F	; 31
     7e6:	ef 16       	cp	r14, r31
     7e8:	f1 04       	cpc	r15, r1
     7ea:	9c f1       	brlt	.+102    	; 0x852 <setDEMOLEDRgb+0xf6>
     7ec:	8b 81       	ldd	r24, Y+3	; 0x03
     7ee:	9c 81       	ldd	r25, Y+4	; 0x04
     7f0:	88 15       	cp	r24, r8
     7f2:	99 05       	cpc	r25, r9
     7f4:	dc f2       	brlt	.-74     	; 0x7ac <setDEMOLEDRgb+0x50>
     7f6:	8b 81       	ldd	r24, Y+3	; 0x03
     7f8:	9c 81       	ldd	r25, Y+4	; 0x04
     7fa:	8a 15       	cp	r24, r10
     7fc:	9b 05       	cpc	r25, r11
     7fe:	74 f4       	brge	.+28     	; 0x81c <setDEMOLEDRgb+0xc0>
     800:	99 81       	ldd	r25, Y+1	; 0x01
     802:	9f 31       	cpi	r25, 0x1F	; 31
     804:	58 f4       	brcc	.+22     	; 0x81c <setDEMOLEDRgb+0xc0>
     806:	f8 01       	movw	r30, r16
     808:	d0 80       	ld	r13, Z
     80a:	60 e0       	ldi	r22, 0x00	; 0
     80c:	84 e3       	ldi	r24, 0x34	; 52
     80e:	b7 de       	rcall	.-658    	; 0x57e <I2CStart>
     810:	88 23       	and	r24, r24
     812:	09 f4       	brne	.+2      	; 0x816 <setDEMOLEDRgb+0xba>
     814:	45 c0       	rjmp	.+138    	; 0x8a0 <setDEMOLEDRgb+0x144>
     816:	8c e0       	ldi	r24, 0x0C	; 12
     818:	c8 2e       	mov	r12, r24
     81a:	d5 cf       	rjmp	.-86     	; 0x7c6 <setDEMOLEDRgb+0x6a>
     81c:	f8 01       	movw	r30, r16
     81e:	d0 80       	ld	r13, Z
     820:	60 e0       	ldi	r22, 0x00	; 0
     822:	84 e3       	ldi	r24, 0x34	; 52
     824:	ac de       	rcall	.-680    	; 0x57e <I2CStart>
     826:	81 11       	cpse	r24, r1
     828:	ce cf       	rjmp	.-100    	; 0x7c6 <setDEMOLEDRgb+0x6a>
     82a:	8d 2d       	mov	r24, r13
     82c:	d8 de       	rcall	.-592    	; 0x5de <I2CWrite>
     82e:	81 11       	cpse	r24, r1
     830:	ca cf       	rjmp	.-108    	; 0x7c6 <setDEMOLEDRgb+0x6a>
     832:	8c 2d       	mov	r24, r12
     834:	82 95       	swap	r24
     836:	8f 70       	andi	r24, 0x0F	; 15
     838:	82 95       	swap	r24
     83a:	88 0f       	add	r24, r24
     83c:	88 0f       	add	r24, r24
     83e:	80 7c       	andi	r24, 0xC0	; 192
     840:	ce de       	rcall	.-612    	; 0x5de <I2CWrite>
     842:	8c 2d       	mov	r24, r12
     844:	82 95       	swap	r24
     846:	80 7f       	andi	r24, 0xF0	; 240
     848:	ca de       	rcall	.-620    	; 0x5de <I2CWrite>
     84a:	80 e0       	ldi	r24, 0x00	; 0
     84c:	c8 de       	rcall	.-624    	; 0x5de <I2CWrite>
     84e:	c3 de       	rcall	.-634    	; 0x5d6 <I2CStop>
     850:	ba cf       	rjmp	.-140    	; 0x7c6 <setDEMOLEDRgb+0x6a>
     852:	f8 01       	movw	r30, r16
     854:	d0 80       	ld	r13, Z
     856:	60 e0       	ldi	r22, 0x00	; 0
     858:	84 e3       	ldi	r24, 0x34	; 52
     85a:	91 de       	rcall	.-734    	; 0x57e <I2CStart>
     85c:	88 23       	and	r24, r24
     85e:	11 f0       	breq	.+4      	; 0x864 <setDEMOLEDRgb+0x108>
     860:	c1 2c       	mov	r12, r1
     862:	b1 cf       	rjmp	.-158    	; 0x7c6 <setDEMOLEDRgb+0x6a>
     864:	8d 2d       	mov	r24, r13
     866:	bb de       	rcall	.-650    	; 0x5de <I2CWrite>
     868:	81 11       	cpse	r24, r1
     86a:	fa cf       	rjmp	.-12     	; 0x860 <setDEMOLEDRgb+0x104>
     86c:	80 ec       	ldi	r24, 0xC0	; 192
     86e:	b7 de       	rcall	.-658    	; 0x5de <I2CWrite>
     870:	80 e0       	ldi	r24, 0x00	; 0
     872:	b5 de       	rcall	.-662    	; 0x5de <I2CWrite>
     874:	80 e0       	ldi	r24, 0x00	; 0
     876:	b3 de       	rcall	.-666    	; 0x5de <I2CWrite>
     878:	ae de       	rcall	.-676    	; 0x5d6 <I2CStop>
     87a:	c1 2c       	mov	r12, r1
     87c:	a4 cf       	rjmp	.-184    	; 0x7c6 <setDEMOLEDRgb+0x6a>
     87e:	0f 90       	pop	r0
     880:	0f 90       	pop	r0
     882:	0f 90       	pop	r0
     884:	0f 90       	pop	r0
     886:	df 91       	pop	r29
     888:	cf 91       	pop	r28
     88a:	1f 91       	pop	r17
     88c:	0f 91       	pop	r16
     88e:	ff 90       	pop	r15
     890:	ef 90       	pop	r14
     892:	df 90       	pop	r13
     894:	cf 90       	pop	r12
     896:	bf 90       	pop	r11
     898:	af 90       	pop	r10
     89a:	9f 90       	pop	r9
     89c:	8f 90       	pop	r8
     89e:	08 95       	ret
     8a0:	8d 2d       	mov	r24, r13
     8a2:	9d de       	rcall	.-710    	; 0x5de <I2CWrite>
     8a4:	81 11       	cpse	r24, r1
     8a6:	b7 cf       	rjmp	.-146    	; 0x816 <setDEMOLEDRgb+0xba>
     8a8:	9a de       	rcall	.-716    	; 0x5de <I2CWrite>
     8aa:	80 e0       	ldi	r24, 0x00	; 0
     8ac:	98 de       	rcall	.-720    	; 0x5de <I2CWrite>
     8ae:	80 ec       	ldi	r24, 0xC0	; 192
     8b0:	96 de       	rcall	.-724    	; 0x5de <I2CWrite>
     8b2:	91 de       	rcall	.-734    	; 0x5d6 <I2CStop>
     8b4:	b0 cf       	rjmp	.-160    	; 0x816 <setDEMOLEDRgb+0xba>
     8b6:	8d 2d       	mov	r24, r13
     8b8:	92 de       	rcall	.-732    	; 0x5de <I2CWrite>
     8ba:	81 11       	cpse	r24, r1
     8bc:	82 cf       	rjmp	.-252    	; 0x7c2 <setDEMOLEDRgb+0x66>
     8be:	8f de       	rcall	.-738    	; 0x5de <I2CWrite>
     8c0:	80 ec       	ldi	r24, 0xC0	; 192
     8c2:	8d de       	rcall	.-742    	; 0x5de <I2CWrite>
     8c4:	80 e0       	ldi	r24, 0x00	; 0
     8c6:	8b de       	rcall	.-746    	; 0x5de <I2CWrite>
     8c8:	86 de       	rcall	.-756    	; 0x5d6 <I2CStop>
     8ca:	7b cf       	rjmp	.-266    	; 0x7c2 <setDEMOLEDRgb+0x66>

000008cc <set_ring>:
     8cc:	2f 92       	push	r2
     8ce:	3f 92       	push	r3
     8d0:	4f 92       	push	r4
     8d2:	5f 92       	push	r5
     8d4:	6f 92       	push	r6
     8d6:	7f 92       	push	r7
     8d8:	8f 92       	push	r8
     8da:	9f 92       	push	r9
     8dc:	af 92       	push	r10
     8de:	bf 92       	push	r11
     8e0:	cf 92       	push	r12
     8e2:	df 92       	push	r13
     8e4:	ef 92       	push	r14
     8e6:	ff 92       	push	r15
     8e8:	0f 93       	push	r16
     8ea:	1f 93       	push	r17
     8ec:	cf 93       	push	r28
     8ee:	df 93       	push	r29
     8f0:	cd b7       	in	r28, 0x3d	; 61
     8f2:	de b7       	in	r29, 0x3e	; 62
     8f4:	2a 97       	sbiw	r28, 0x0a	; 10
     8f6:	0f b6       	in	r0, 0x3f	; 63
     8f8:	f8 94       	cli
     8fa:	de bf       	out	0x3e, r29	; 62
     8fc:	0f be       	out	0x3f, r0	; 63
     8fe:	cd bf       	out	0x3d, r28	; 61
     900:	3c 01       	movw	r6, r24
     902:	7a 83       	std	Y+2, r23	; 0x02
     904:	69 83       	std	Y+1, r22	; 0x01
     906:	14 2f       	mov	r17, r20
     908:	6c 01       	movw	r12, r24
     90a:	21 e6       	ldi	r18, 0x61	; 97
     90c:	c2 0e       	add	r12, r18
     90e:	d1 1c       	adc	r13, r1
     910:	f6 01       	movw	r30, r12
     912:	e0 80       	ld	r14, Z
     914:	5c 01       	movw	r10, r24
     916:	f2 e6       	ldi	r31, 0x62	; 98
     918:	af 0e       	add	r10, r31
     91a:	b1 1c       	adc	r11, r1
     91c:	f5 01       	movw	r30, r10
     91e:	00 81       	ld	r16, Z
     920:	e0 16       	cp	r14, r16
     922:	08 f0       	brcs	.+2      	; 0x926 <set_ring+0x5a>
     924:	90 c0       	rjmp	.+288    	; 0xa46 <set_ring+0x17a>
     926:	60 2f       	mov	r22, r16
     928:	70 e0       	ldi	r23, 0x00	; 0
     92a:	6e 19       	sub	r22, r14
     92c:	71 09       	sbc	r23, r1
     92e:	6f 5f       	subi	r22, 0xFF	; 255
     930:	7f 4f       	sbci	r23, 0xFF	; 255
     932:	07 2e       	mov	r0, r23
     934:	00 0c       	add	r0, r0
     936:	88 0b       	sbc	r24, r24
     938:	99 0b       	sbc	r25, r25
     93a:	21 d6       	rcall	.+3138   	; 0x157e <__floatsisf>
     93c:	24 e4       	ldi	r18, 0x44	; 68
     93e:	3b e8       	ldi	r19, 0x8B	; 139
     940:	48 e8       	ldi	r20, 0x88	; 136
     942:	50 e4       	ldi	r21, 0x40	; 64
     944:	a8 d6       	rcall	.+3408   	; 0x1696 <__mulsf3>
     946:	ed d5       	rcall	.+3034   	; 0x1522 <__fixunssfsi>
     948:	e9 81       	ldd	r30, Y+1	; 0x01
     94a:	fa 81       	ldd	r31, Y+2	; 0x02
     94c:	62 83       	std	Z+2, r22	; 0x02
     94e:	61 2f       	mov	r22, r17
     950:	70 e0       	ldi	r23, 0x00	; 0
     952:	80 e0       	ldi	r24, 0x00	; 0
     954:	90 e0       	ldi	r25, 0x00	; 0
     956:	13 d6       	rcall	.+3110   	; 0x157e <__floatsisf>
     958:	24 e4       	ldi	r18, 0x44	; 68
     95a:	3b e8       	ldi	r19, 0x8B	; 139
     95c:	48 e8       	ldi	r20, 0x88	; 136
     95e:	50 e4       	ldi	r21, 0x40	; 64
     960:	78 d5       	rcall	.+2800   	; 0x1452 <__divsf3>
     962:	df d5       	rcall	.+3006   	; 0x1522 <__fixunssfsi>
     964:	00 e0       	ldi	r16, 0x00	; 0
     966:	11 e0       	ldi	r17, 0x01	; 1
     968:	18 86       	std	Y+8, r1	; 0x08
     96a:	1f 82       	std	Y+7, r1	; 0x07
     96c:	e6 2e       	mov	r14, r22
     96e:	f1 2c       	mov	r15, r1
     970:	43 01       	movw	r8, r6
     972:	fa e5       	ldi	r31, 0x5A	; 90
     974:	8f 0e       	add	r8, r31
     976:	91 1c       	adc	r9, r1
     978:	23 01       	movw	r4, r6
     97a:	2b e5       	ldi	r18, 0x5B	; 91
     97c:	42 0e       	add	r4, r18
     97e:	51 1c       	adc	r5, r1
     980:	13 01       	movw	r2, r6
     982:	3c e5       	ldi	r19, 0x5C	; 92
     984:	23 0e       	add	r2, r19
     986:	31 1c       	adc	r3, r1
     988:	a3 01       	movw	r20, r6
     98a:	43 5a       	subi	r20, 0xA3	; 163
     98c:	5f 4f       	sbci	r21, 0xFF	; 255
     98e:	5a 83       	std	Y+2, r21	; 0x02
     990:	49 83       	std	Y+1, r20	; 0x01
     992:	c3 01       	movw	r24, r6
     994:	82 5a       	subi	r24, 0xA2	; 162
     996:	9f 4f       	sbci	r25, 0xFF	; 255
     998:	9c 83       	std	Y+4, r25	; 0x04
     99a:	8b 83       	std	Y+3, r24	; 0x03
     99c:	f3 01       	movw	r30, r6
     99e:	e1 5a       	subi	r30, 0xA1	; 161
     9a0:	ff 4f       	sbci	r31, 0xFF	; 255
     9a2:	fe 83       	std	Y+6, r31	; 0x06
     9a4:	ed 83       	std	Y+5, r30	; 0x05
     9a6:	2f 81       	ldd	r18, Y+7	; 0x07
     9a8:	38 85       	ldd	r19, Y+8	; 0x08
     9aa:	1f c0       	rjmp	.+62     	; 0x9ea <set_ring+0x11e>
     9ac:	a9 01       	movw	r20, r18
     9ae:	f5 01       	movw	r30, r10
     9b0:	20 81       	ld	r18, Z
     9b2:	30 e0       	ldi	r19, 0x00	; 0
     9b4:	24 17       	cp	r18, r20
     9b6:	35 07       	cpc	r19, r21
     9b8:	f4 f0       	brlt	.+60     	; 0x9f6 <set_ring+0x12a>
     9ba:	8e 0d       	add	r24, r14
     9bc:	9f 1d       	adc	r25, r15
     9be:	f8 01       	movw	r30, r16
     9c0:	70 80       	ld	r7, Z
     9c2:	60 e0       	ldi	r22, 0x00	; 0
     9c4:	48 17       	cp	r20, r24
     9c6:	59 07       	cpc	r21, r25
     9c8:	44 f5       	brge	.+80     	; 0xa1a <set_ring+0x14e>
     9ca:	84 e3       	ldi	r24, 0x34	; 52
     9cc:	d8 dd       	rcall	.-1104   	; 0x57e <I2CStart>
     9ce:	88 23       	and	r24, r24
     9d0:	09 f4       	brne	.+2      	; 0x9d4 <set_ring+0x108>
     9d2:	54 c0       	rjmp	.+168    	; 0xa7c <set_ring+0x1b0>
     9d4:	2f 81       	ldd	r18, Y+7	; 0x07
     9d6:	38 85       	ldd	r19, Y+8	; 0x08
     9d8:	2f 5f       	subi	r18, 0xFF	; 255
     9da:	3f 4f       	sbci	r19, 0xFF	; 255
     9dc:	38 87       	std	Y+8, r19	; 0x08
     9de:	2f 83       	std	Y+7, r18	; 0x07
     9e0:	0f 5f       	subi	r16, 0xFF	; 255
     9e2:	1f 4f       	sbci	r17, 0xFF	; 255
     9e4:	2e 31       	cpi	r18, 0x1E	; 30
     9e6:	31 05       	cpc	r19, r1
     9e8:	81 f1       	breq	.+96     	; 0xa4a <set_ring+0x17e>
     9ea:	f6 01       	movw	r30, r12
     9ec:	80 81       	ld	r24, Z
     9ee:	90 e0       	ldi	r25, 0x00	; 0
     9f0:	28 17       	cp	r18, r24
     9f2:	39 07       	cpc	r19, r25
     9f4:	dc f6       	brge	.-74     	; 0x9ac <set_ring+0xe0>
     9f6:	f8 01       	movw	r30, r16
     9f8:	70 80       	ld	r7, Z
     9fa:	60 e0       	ldi	r22, 0x00	; 0
     9fc:	84 e3       	ldi	r24, 0x34	; 52
     9fe:	bf dd       	rcall	.-1154   	; 0x57e <I2CStart>
     a00:	81 11       	cpse	r24, r1
     a02:	e8 cf       	rjmp	.-48     	; 0x9d4 <set_ring+0x108>
     a04:	87 2d       	mov	r24, r7
     a06:	eb dd       	rcall	.-1066   	; 0x5de <I2CWrite>
     a08:	81 11       	cpse	r24, r1
     a0a:	e4 cf       	rjmp	.-56     	; 0x9d4 <set_ring+0x108>
     a0c:	e8 dd       	rcall	.-1072   	; 0x5de <I2CWrite>
     a0e:	80 e0       	ldi	r24, 0x00	; 0
     a10:	e6 dd       	rcall	.-1076   	; 0x5de <I2CWrite>
     a12:	80 e0       	ldi	r24, 0x00	; 0
     a14:	e4 dd       	rcall	.-1080   	; 0x5de <I2CWrite>
     a16:	df dd       	rcall	.-1090   	; 0x5d6 <I2CStop>
     a18:	dd cf       	rjmp	.-70     	; 0x9d4 <set_ring+0x108>
     a1a:	84 e3       	ldi	r24, 0x34	; 52
     a1c:	b0 dd       	rcall	.-1184   	; 0x57e <I2CStart>
     a1e:	81 11       	cpse	r24, r1
     a20:	d9 cf       	rjmp	.-78     	; 0x9d4 <set_ring+0x108>
     a22:	87 2d       	mov	r24, r7
     a24:	dc dd       	rcall	.-1096   	; 0x5de <I2CWrite>
     a26:	81 11       	cpse	r24, r1
     a28:	d5 cf       	rjmp	.-86     	; 0x9d4 <set_ring+0x108>
     a2a:	e9 81       	ldd	r30, Y+1	; 0x01
     a2c:	fa 81       	ldd	r31, Y+2	; 0x02
     a2e:	80 81       	ld	r24, Z
     a30:	d6 dd       	rcall	.-1108   	; 0x5de <I2CWrite>
     a32:	eb 81       	ldd	r30, Y+3	; 0x03
     a34:	fc 81       	ldd	r31, Y+4	; 0x04
     a36:	80 81       	ld	r24, Z
     a38:	d2 dd       	rcall	.-1116   	; 0x5de <I2CWrite>
     a3a:	ed 81       	ldd	r30, Y+5	; 0x05
     a3c:	fe 81       	ldd	r31, Y+6	; 0x06
     a3e:	80 81       	ld	r24, Z
     a40:	ce dd       	rcall	.-1124   	; 0x5de <I2CWrite>
     a42:	c9 dd       	rcall	.-1134   	; 0x5d6 <I2CStop>
     a44:	c7 cf       	rjmp	.-114    	; 0x9d4 <set_ring+0x108>
     a46:	0e 15       	cp	r16, r14
     a48:	40 f1       	brcs	.+80     	; 0xa9a <set_ring+0x1ce>
     a4a:	2a 96       	adiw	r28, 0x0a	; 10
     a4c:	0f b6       	in	r0, 0x3f	; 63
     a4e:	f8 94       	cli
     a50:	de bf       	out	0x3e, r29	; 62
     a52:	0f be       	out	0x3f, r0	; 63
     a54:	cd bf       	out	0x3d, r28	; 61
     a56:	df 91       	pop	r29
     a58:	cf 91       	pop	r28
     a5a:	1f 91       	pop	r17
     a5c:	0f 91       	pop	r16
     a5e:	ff 90       	pop	r15
     a60:	ef 90       	pop	r14
     a62:	df 90       	pop	r13
     a64:	cf 90       	pop	r12
     a66:	bf 90       	pop	r11
     a68:	af 90       	pop	r10
     a6a:	9f 90       	pop	r9
     a6c:	8f 90       	pop	r8
     a6e:	7f 90       	pop	r7
     a70:	6f 90       	pop	r6
     a72:	5f 90       	pop	r5
     a74:	4f 90       	pop	r4
     a76:	3f 90       	pop	r3
     a78:	2f 90       	pop	r2
     a7a:	08 95       	ret
     a7c:	87 2d       	mov	r24, r7
     a7e:	af dd       	rcall	.-1186   	; 0x5de <I2CWrite>
     a80:	81 11       	cpse	r24, r1
     a82:	a8 cf       	rjmp	.-176    	; 0x9d4 <set_ring+0x108>
     a84:	f4 01       	movw	r30, r8
     a86:	80 81       	ld	r24, Z
     a88:	aa dd       	rcall	.-1196   	; 0x5de <I2CWrite>
     a8a:	f2 01       	movw	r30, r4
     a8c:	80 81       	ld	r24, Z
     a8e:	a7 dd       	rcall	.-1202   	; 0x5de <I2CWrite>
     a90:	f1 01       	movw	r30, r2
     a92:	80 81       	ld	r24, Z
     a94:	a4 dd       	rcall	.-1208   	; 0x5de <I2CWrite>
     a96:	9f dd       	rcall	.-1218   	; 0x5d6 <I2CStop>
     a98:	9d cf       	rjmp	.-198    	; 0x9d4 <set_ring+0x108>
     a9a:	6e e1       	ldi	r22, 0x1E	; 30
     a9c:	60 0f       	add	r22, r16
     a9e:	6e 19       	sub	r22, r14
     aa0:	70 e0       	ldi	r23, 0x00	; 0
     aa2:	6f 5f       	subi	r22, 0xFF	; 255
     aa4:	7f 4f       	sbci	r23, 0xFF	; 255
     aa6:	07 2e       	mov	r0, r23
     aa8:	00 0c       	add	r0, r0
     aaa:	88 0b       	sbc	r24, r24
     aac:	99 0b       	sbc	r25, r25
     aae:	67 d5       	rcall	.+2766   	; 0x157e <__floatsisf>
     ab0:	27 ed       	ldi	r18, 0xD7	; 215
     ab2:	33 ea       	ldi	r19, 0xA3	; 163
     ab4:	48 e8       	ldi	r20, 0x88	; 136
     ab6:	50 e4       	ldi	r21, 0x40	; 64
     ab8:	ee d5       	rcall	.+3036   	; 0x1696 <__mulsf3>
     aba:	33 d5       	rcall	.+2662   	; 0x1522 <__fixunssfsi>
     abc:	e9 81       	ldd	r30, Y+1	; 0x01
     abe:	fa 81       	ldd	r31, Y+2	; 0x02
     ac0:	62 83       	std	Z+2, r22	; 0x02
     ac2:	61 2f       	mov	r22, r17
     ac4:	70 e0       	ldi	r23, 0x00	; 0
     ac6:	80 e0       	ldi	r24, 0x00	; 0
     ac8:	90 e0       	ldi	r25, 0x00	; 0
     aca:	59 d5       	rcall	.+2738   	; 0x157e <__floatsisf>
     acc:	2c ee       	ldi	r18, 0xEC	; 236
     ace:	31 e5       	ldi	r19, 0x51	; 81
     ad0:	48 e8       	ldi	r20, 0x88	; 136
     ad2:	50 e4       	ldi	r21, 0x40	; 64
     ad4:	be d4       	rcall	.+2428   	; 0x1452 <__divsf3>
     ad6:	f1 2c       	mov	r15, r1
     ad8:	24 d5       	rcall	.+2632   	; 0x1522 <__fixunssfsi>
     ada:	a6 2e       	mov	r10, r22
     adc:	b1 2c       	mov	r11, r1
     ade:	65 01       	movw	r12, r10
     ae0:	ce 0c       	add	r12, r14
     ae2:	df 1c       	adc	r13, r15
     ae4:	20 e0       	ldi	r18, 0x00	; 0
     ae6:	31 e0       	ldi	r19, 0x01	; 1
     ae8:	3a 87       	std	Y+10, r19	; 0x0a
     aea:	29 87       	std	Y+9, r18	; 0x09
     aec:	81 2c       	mov	r8, r1
     aee:	91 2c       	mov	r9, r1
     af0:	a3 01       	movw	r20, r6
     af2:	46 5a       	subi	r20, 0xA6	; 166
     af4:	5f 4f       	sbci	r21, 0xFF	; 255
     af6:	5c 83       	std	Y+4, r21	; 0x04
     af8:	4b 83       	std	Y+3, r20	; 0x03
     afa:	c3 01       	movw	r24, r6
     afc:	85 5a       	subi	r24, 0xA5	; 165
     afe:	9f 4f       	sbci	r25, 0xFF	; 255
     b00:	9e 83       	std	Y+6, r25	; 0x06
     b02:	8d 83       	std	Y+5, r24	; 0x05
     b04:	f3 01       	movw	r30, r6
     b06:	e4 5a       	subi	r30, 0xA4	; 164
     b08:	ff 4f       	sbci	r31, 0xFF	; 255
     b0a:	f8 87       	std	Y+8, r31	; 0x08
     b0c:	ef 83       	std	Y+7, r30	; 0x07
     b0e:	10 e0       	ldi	r17, 0x00	; 0
     b10:	23 01       	movw	r4, r6
     b12:	fd e5       	ldi	r31, 0x5D	; 93
     b14:	4f 0e       	add	r4, r31
     b16:	51 1c       	adc	r5, r1
     b18:	13 01       	movw	r2, r6
     b1a:	2e e5       	ldi	r18, 0x5E	; 94
     b1c:	22 0e       	add	r2, r18
     b1e:	31 1c       	adc	r3, r1
     b20:	4b 5f       	subi	r20, 0xFB	; 251
     b22:	5f 4f       	sbci	r21, 0xFF	; 255
     b24:	5a 83       	std	Y+2, r21	; 0x02
     b26:	49 83       	std	Y+1, r20	; 0x01
     b28:	f6 01       	movw	r30, r12
     b2a:	7e 97       	sbiw	r30, 0x1e	; 30
     b2c:	5f 01       	movw	r10, r30
     b2e:	22 c0       	rjmp	.+68     	; 0xb74 <set_ring+0x2a8>
     b30:	8e 14       	cp	r8, r14
     b32:	9f 04       	cpc	r9, r15
     b34:	0c f0       	brlt	.+2      	; 0xb38 <set_ring+0x26c>
     b36:	41 c0       	rjmp	.+130    	; 0xbba <set_ring+0x2ee>
     b38:	8a 14       	cp	r8, r10
     b3a:	9b 04       	cpc	r9, r11
     b3c:	0c f0       	brlt	.+2      	; 0xb40 <set_ring+0x274>
     b3e:	55 c0       	rjmp	.+170    	; 0xbea <set_ring+0x31e>
     b40:	08 15       	cp	r16, r8
     b42:	19 05       	cpc	r17, r9
     b44:	0c f4       	brge	.+2      	; 0xb48 <set_ring+0x27c>
     b46:	5b c0       	rjmp	.+182    	; 0xbfe <set_ring+0x332>
     b48:	e9 85       	ldd	r30, Y+9	; 0x09
     b4a:	fa 85       	ldd	r31, Y+10	; 0x0a
     b4c:	70 80       	ld	r7, Z
     b4e:	60 e0       	ldi	r22, 0x00	; 0
     b50:	84 e3       	ldi	r24, 0x34	; 52
     b52:	15 dd       	rcall	.-1494   	; 0x57e <I2CStart>
     b54:	88 23       	and	r24, r24
     b56:	f9 f0       	breq	.+62     	; 0xb96 <set_ring+0x2ca>
     b58:	ff ef       	ldi	r31, 0xFF	; 255
     b5a:	8f 1a       	sub	r8, r31
     b5c:	9f 0a       	sbc	r9, r31
     b5e:	29 85       	ldd	r18, Y+9	; 0x09
     b60:	3a 85       	ldd	r19, Y+10	; 0x0a
     b62:	2f 5f       	subi	r18, 0xFF	; 255
     b64:	3f 4f       	sbci	r19, 0xFF	; 255
     b66:	3a 87       	std	Y+10, r19	; 0x0a
     b68:	29 87       	std	Y+9, r18	; 0x09
     b6a:	3e e1       	ldi	r19, 0x1E	; 30
     b6c:	83 16       	cp	r8, r19
     b6e:	91 04       	cpc	r9, r1
     b70:	09 f4       	brne	.+2      	; 0xb74 <set_ring+0x2a8>
     b72:	6b cf       	rjmp	.-298    	; 0xa4a <set_ring+0x17e>
     b74:	8c 14       	cp	r8, r12
     b76:	9d 04       	cpc	r9, r13
     b78:	dc f6       	brge	.-74     	; 0xb30 <set_ring+0x264>
     b7a:	8a 14       	cp	r8, r10
     b7c:	9b 04       	cpc	r9, r11
     b7e:	ac f5       	brge	.+106    	; 0xbea <set_ring+0x31e>
     b80:	8e 14       	cp	r8, r14
     b82:	9f 04       	cpc	r9, r15
     b84:	ec f2       	brlt	.-70     	; 0xb40 <set_ring+0x274>
     b86:	e9 85       	ldd	r30, Y+9	; 0x09
     b88:	fa 85       	ldd	r31, Y+10	; 0x0a
     b8a:	70 80       	ld	r7, Z
     b8c:	60 e0       	ldi	r22, 0x00	; 0
     b8e:	84 e3       	ldi	r24, 0x34	; 52
     b90:	f6 dc       	rcall	.-1556   	; 0x57e <I2CStart>
     b92:	81 11       	cpse	r24, r1
     b94:	e1 cf       	rjmp	.-62     	; 0xb58 <set_ring+0x28c>
     b96:	87 2d       	mov	r24, r7
     b98:	22 dd       	rcall	.-1468   	; 0x5de <I2CWrite>
     b9a:	81 11       	cpse	r24, r1
     b9c:	dd cf       	rjmp	.-70     	; 0xb58 <set_ring+0x28c>
     b9e:	eb 81       	ldd	r30, Y+3	; 0x03
     ba0:	fc 81       	ldd	r31, Y+4	; 0x04
     ba2:	80 81       	ld	r24, Z
     ba4:	1c dd       	rcall	.-1480   	; 0x5de <I2CWrite>
     ba6:	ed 81       	ldd	r30, Y+5	; 0x05
     ba8:	fe 81       	ldd	r31, Y+6	; 0x06
     baa:	80 81       	ld	r24, Z
     bac:	18 dd       	rcall	.-1488   	; 0x5de <I2CWrite>
     bae:	ef 81       	ldd	r30, Y+7	; 0x07
     bb0:	f8 85       	ldd	r31, Y+8	; 0x08
     bb2:	80 81       	ld	r24, Z
     bb4:	14 dd       	rcall	.-1496   	; 0x5de <I2CWrite>
     bb6:	0f dd       	rcall	.-1506   	; 0x5d6 <I2CStop>
     bb8:	cf cf       	rjmp	.-98     	; 0xb58 <set_ring+0x28c>
     bba:	e9 85       	ldd	r30, Y+9	; 0x09
     bbc:	fa 85       	ldd	r31, Y+10	; 0x0a
     bbe:	70 80       	ld	r7, Z
     bc0:	60 e0       	ldi	r22, 0x00	; 0
     bc2:	84 e3       	ldi	r24, 0x34	; 52
     bc4:	dc dc       	rcall	.-1608   	; 0x57e <I2CStart>
     bc6:	81 11       	cpse	r24, r1
     bc8:	c7 cf       	rjmp	.-114    	; 0xb58 <set_ring+0x28c>
     bca:	87 2d       	mov	r24, r7
     bcc:	08 dd       	rcall	.-1520   	; 0x5de <I2CWrite>
     bce:	81 11       	cpse	r24, r1
     bd0:	c3 cf       	rjmp	.-122    	; 0xb58 <set_ring+0x28c>
     bd2:	f2 01       	movw	r30, r4
     bd4:	80 81       	ld	r24, Z
     bd6:	03 dd       	rcall	.-1530   	; 0x5de <I2CWrite>
     bd8:	f1 01       	movw	r30, r2
     bda:	80 81       	ld	r24, Z
     bdc:	00 dd       	rcall	.-1536   	; 0x5de <I2CWrite>
     bde:	e9 81       	ldd	r30, Y+1	; 0x01
     be0:	fa 81       	ldd	r31, Y+2	; 0x02
     be2:	80 81       	ld	r24, Z
     be4:	fc dc       	rcall	.-1544   	; 0x5de <I2CWrite>
     be6:	f7 dc       	rcall	.-1554   	; 0x5d6 <I2CStop>
     be8:	b7 cf       	rjmp	.-146    	; 0xb58 <set_ring+0x28c>
     bea:	08 15       	cp	r16, r8
     bec:	19 05       	cpc	r17, r9
     bee:	2c f7       	brge	.-54     	; 0xbba <set_ring+0x2ee>
     bf0:	8c 14       	cp	r8, r12
     bf2:	9d 04       	cpc	r9, r13
     bf4:	24 f4       	brge	.+8      	; 0xbfe <set_ring+0x332>
     bf6:	8e 14       	cp	r8, r14
     bf8:	9f 04       	cpc	r9, r15
     bfa:	0c f0       	brlt	.+2      	; 0xbfe <set_ring+0x332>
     bfc:	a5 cf       	rjmp	.-182    	; 0xb48 <set_ring+0x27c>
     bfe:	e9 85       	ldd	r30, Y+9	; 0x09
     c00:	fa 85       	ldd	r31, Y+10	; 0x0a
     c02:	70 80       	ld	r7, Z
     c04:	60 e0       	ldi	r22, 0x00	; 0
     c06:	84 e3       	ldi	r24, 0x34	; 52
     c08:	ba dc       	rcall	.-1676   	; 0x57e <I2CStart>
     c0a:	81 11       	cpse	r24, r1
     c0c:	a5 cf       	rjmp	.-182    	; 0xb58 <set_ring+0x28c>
     c0e:	87 2d       	mov	r24, r7
     c10:	e6 dc       	rcall	.-1588   	; 0x5de <I2CWrite>
     c12:	81 11       	cpse	r24, r1
     c14:	a1 cf       	rjmp	.-190    	; 0xb58 <set_ring+0x28c>
     c16:	e3 dc       	rcall	.-1594   	; 0x5de <I2CWrite>
     c18:	80 e0       	ldi	r24, 0x00	; 0
     c1a:	e1 dc       	rcall	.-1598   	; 0x5de <I2CWrite>
     c1c:	80 e0       	ldi	r24, 0x00	; 0
     c1e:	df dc       	rcall	.-1602   	; 0x5de <I2CWrite>
     c20:	da dc       	rcall	.-1612   	; 0x5d6 <I2CStop>
     c22:	9a cf       	rjmp	.-204    	; 0xb58 <set_ring+0x28c>

00000c24 <bufToRGBArray>:
     c24:	af 92       	push	r10
     c26:	bf 92       	push	r11
     c28:	cf 92       	push	r12
     c2a:	df 92       	push	r13
     c2c:	ef 92       	push	r14
     c2e:	ff 92       	push	r15
     c30:	0f 93       	push	r16
     c32:	1f 93       	push	r17
     c34:	cf 93       	push	r28
     c36:	df 93       	push	r29
     c38:	8c 01       	movw	r16, r24
     c3a:	eb 01       	movw	r28, r22
     c3c:	cb 01       	movw	r24, r22
     c3e:	0f dc       	rcall	.-2018   	; 0x45e <getTick>
     c40:	5c 01       	movw	r10, r24
     c42:	7c 01       	movw	r14, r24
     c44:	8c e0       	ldi	r24, 0x0C	; 12
     c46:	e8 1a       	sub	r14, r24
     c48:	8e ef       	ldi	r24, 0xFE	; 254
     c4a:	f8 0a       	sbc	r15, r24
     c4c:	05 c0       	rjmp	.+10     	; 0xc58 <bufToRGBArray+0x34>
     c4e:	ce 01       	movw	r24, r28
     c50:	06 dc       	rcall	.-2036   	; 0x45e <getTick>
     c52:	e8 16       	cp	r14, r24
     c54:	f9 06       	cpc	r15, r25
     c56:	28 f0       	brcs	.+10     	; 0xc62 <bufToRGBArray+0x3e>
     c58:	8f e2       	ldi	r24, 0x2F	; 47
     c5a:	91 e0       	ldi	r25, 0x01	; 1
     c5c:	b9 d2       	rcall	.+1394   	; 0x11d0 <readBufferLength>
     c5e:	02 97       	sbiw	r24, 0x02	; 2
     c60:	b4 f3       	brlt	.-20     	; 0xc4e <bufToRGBArray+0x2a>
     c62:	8f e2       	ldi	r24, 0x2F	; 47
     c64:	91 e0       	ldi	r25, 0x01	; 1
     c66:	8e d2       	rcall	.+1308   	; 0x1184 <readBuffer>
     c68:	6c 01       	movw	r12, r24
     c6a:	8f e2       	ldi	r24, 0x2F	; 47
     c6c:	91 e0       	ldi	r25, 0x01	; 1
     c6e:	8a d2       	rcall	.+1300   	; 0x1184 <readBuffer>
     c70:	7c 01       	movw	r14, r24
     c72:	8c e0       	ldi	r24, 0x0C	; 12
     c74:	a8 1a       	sub	r10, r24
     c76:	8e ef       	ldi	r24, 0xFE	; 254
     c78:	b8 0a       	sbc	r11, r24
     c7a:	05 c0       	rjmp	.+10     	; 0xc86 <bufToRGBArray+0x62>
     c7c:	ce 01       	movw	r24, r28
     c7e:	ef db       	rcall	.-2082   	; 0x45e <getTick>
     c80:	a8 16       	cp	r10, r24
     c82:	b9 06       	cpc	r11, r25
     c84:	30 f0       	brcs	.+12     	; 0xc92 <bufToRGBArray+0x6e>
     c86:	8f e2       	ldi	r24, 0x2F	; 47
     c88:	91 e0       	ldi	r25, 0x01	; 1
     c8a:	a2 d2       	rcall	.+1348   	; 0x11d0 <readBufferLength>
     c8c:	8c 15       	cp	r24, r12
     c8e:	9d 05       	cpc	r25, r13
     c90:	ac f3       	brlt	.-22     	; 0xc7c <bufToRGBArray+0x58>
     c92:	1c 14       	cp	r1, r12
     c94:	1d 04       	cpc	r1, r13
     c96:	74 f4       	brge	.+28     	; 0xcb4 <bufToRGBArray+0x90>
     c98:	e8 01       	movw	r28, r16
     c9a:	ce 0d       	add	r28, r14
     c9c:	df 1d       	adc	r29, r15
     c9e:	ec 0c       	add	r14, r12
     ca0:	fd 1c       	adc	r15, r13
     ca2:	0e 0d       	add	r16, r14
     ca4:	1f 1d       	adc	r17, r15
     ca6:	8f e2       	ldi	r24, 0x2F	; 47
     ca8:	91 e0       	ldi	r25, 0x01	; 1
     caa:	6c d2       	rcall	.+1240   	; 0x1184 <readBuffer>
     cac:	89 93       	st	Y+, r24
     cae:	c0 17       	cp	r28, r16
     cb0:	d1 07       	cpc	r29, r17
     cb2:	c9 f7       	brne	.-14     	; 0xca6 <bufToRGBArray+0x82>
     cb4:	80 e0       	ldi	r24, 0x00	; 0
     cb6:	90 e0       	ldi	r25, 0x00	; 0
     cb8:	df 91       	pop	r29
     cba:	cf 91       	pop	r28
     cbc:	1f 91       	pop	r17
     cbe:	0f 91       	pop	r16
     cc0:	ff 90       	pop	r15
     cc2:	ef 90       	pop	r14
     cc4:	df 90       	pop	r13
     cc6:	cf 90       	pop	r12
     cc8:	bf 90       	pop	r11
     cca:	af 90       	pop	r10
     ccc:	08 95       	ret

00000cce <bufToRGB>:
     cce:	af 92       	push	r10
     cd0:	bf 92       	push	r11
     cd2:	cf 92       	push	r12
     cd4:	df 92       	push	r13
     cd6:	ef 92       	push	r14
     cd8:	ff 92       	push	r15
     cda:	0f 93       	push	r16
     cdc:	1f 93       	push	r17
     cde:	cf 93       	push	r28
     ce0:	df 93       	push	r29
     ce2:	b8 2e       	mov	r11, r24
     ce4:	a9 2e       	mov	r10, r25
     ce6:	eb 01       	movw	r28, r22
     ce8:	8a 01       	movw	r16, r20
     cea:	ca 01       	movw	r24, r20
     cec:	b8 db       	rcall	.-2192   	; 0x45e <getTick>
     cee:	6c 01       	movw	r12, r24
     cf0:	7c 01       	movw	r14, r24
     cf2:	8c e0       	ldi	r24, 0x0C	; 12
     cf4:	e8 1a       	sub	r14, r24
     cf6:	8e ef       	ldi	r24, 0xFE	; 254
     cf8:	f8 0a       	sbc	r15, r24
     cfa:	05 c0       	rjmp	.+10     	; 0xd06 <bufToRGB+0x38>
     cfc:	c8 01       	movw	r24, r16
     cfe:	af db       	rcall	.-2210   	; 0x45e <getTick>
     d00:	e8 16       	cp	r14, r24
     d02:	f9 06       	cpc	r15, r25
     d04:	20 f0       	brcs	.+8      	; 0xd0e <bufToRGB+0x40>
     d06:	ce 01       	movw	r24, r28
     d08:	63 d2       	rcall	.+1222   	; 0x11d0 <readBufferLength>
     d0a:	89 2b       	or	r24, r25
     d0c:	b9 f3       	breq	.-18     	; 0xcfc <bufToRGB+0x2e>
     d0e:	ce 01       	movw	r24, r28
     d10:	39 d2       	rcall	.+1138   	; 0x1184 <readBuffer>
     d12:	7c 01       	movw	r14, r24
     d14:	ec e0       	ldi	r30, 0x0C	; 12
     d16:	ce 1a       	sub	r12, r30
     d18:	ee ef       	ldi	r30, 0xFE	; 254
     d1a:	de 0a       	sbc	r13, r30
     d1c:	05 c0       	rjmp	.+10     	; 0xd28 <bufToRGB+0x5a>
     d1e:	c8 01       	movw	r24, r16
     d20:	9e db       	rcall	.-2244   	; 0x45e <getTick>
     d22:	c8 16       	cp	r12, r24
     d24:	d9 06       	cpc	r13, r25
     d26:	28 f0       	brcs	.+10     	; 0xd32 <bufToRGB+0x64>
     d28:	ce 01       	movw	r24, r28
     d2a:	52 d2       	rcall	.+1188   	; 0x11d0 <readBufferLength>
     d2c:	8e 15       	cp	r24, r14
     d2e:	9f 05       	cpc	r25, r15
     d30:	b4 f3       	brlt	.-20     	; 0xd1e <bufToRGB+0x50>
     d32:	0b 2d       	mov	r16, r11
     d34:	1a 2d       	mov	r17, r10
     d36:	78 01       	movw	r14, r16
     d38:	f3 e0       	ldi	r31, 0x03	; 3
     d3a:	ef 0e       	add	r14, r31
     d3c:	f1 1c       	adc	r15, r1
     d3e:	ce 01       	movw	r24, r28
     d40:	21 d2       	rcall	.+1090   	; 0x1184 <readBuffer>
     d42:	f8 01       	movw	r30, r16
     d44:	81 93       	st	Z+, r24
     d46:	8f 01       	movw	r16, r30
     d48:	ee 15       	cp	r30, r14
     d4a:	ff 05       	cpc	r31, r15
     d4c:	c1 f7       	brne	.-16     	; 0xd3e <bufToRGB+0x70>
     d4e:	80 e0       	ldi	r24, 0x00	; 0
     d50:	90 e0       	ldi	r25, 0x00	; 0
     d52:	df 91       	pop	r29
     d54:	cf 91       	pop	r28
     d56:	1f 91       	pop	r17
     d58:	0f 91       	pop	r16
     d5a:	ff 90       	pop	r15
     d5c:	ef 90       	pop	r14
     d5e:	df 90       	pop	r13
     d60:	cf 90       	pop	r12
     d62:	bf 90       	pop	r11
     d64:	af 90       	pop	r10
     d66:	08 95       	ret

00000d68 <main>:
     d68:	14 be       	out	0x34, r1	; 52
     d6a:	0f b6       	in	r0, 0x3f	; 63
     d6c:	f8 94       	cli
     d6e:	a8 95       	wdr
     d70:	80 91 60 00 	lds	r24, 0x0060	; 0x800060 <__TEXT_REGION_LENGTH__+0x7fe060>
     d74:	88 61       	ori	r24, 0x18	; 24
     d76:	80 93 60 00 	sts	0x0060, r24	; 0x800060 <__TEXT_REGION_LENGTH__+0x7fe060>
     d7a:	10 92 60 00 	sts	0x0060, r1	; 0x800060 <__TEXT_REGION_LENGTH__+0x7fe060>
     d7e:	0f be       	out	0x3f, r0	; 63
     d80:	82 e2       	ldi	r24, 0x22	; 34
     d82:	91 e0       	ldi	r25, 0x01	; 1
     d84:	ed d9       	rcall	.-3110   	; 0x160 <ACEInit>
     d86:	89 e2       	ldi	r24, 0x29	; 41
     d88:	91 e0       	ldi	r25, 0x01	; 1
     d8a:	56 db       	rcall	.-2388   	; 0x438 <timersInit>
     d8c:	f0 db       	rcall	.-2080   	; 0x56e <I2CInit>
     d8e:	8b ea       	ldi	r24, 0xAB	; 171
     d90:	91 e0       	ldi	r25, 0x01	; 1
     d92:	37 dc       	rcall	.-1938   	; 0x602 <LEDInit>
     d94:	da d1       	rcall	.+948    	; 0x114a <SPIInit>
     d96:	8f e2       	ldi	r24, 0x2F	; 47
     d98:	91 e0       	ldi	r25, 0x01	; 1
     d9a:	e8 d1       	rcall	.+976    	; 0x116c <bufferInit>
     d9c:	78 94       	sei
     d9e:	2f ef       	ldi	r18, 0xFF	; 255
     da0:	80 e7       	ldi	r24, 0x70	; 112
     da2:	92 e0       	ldi	r25, 0x02	; 2
     da4:	21 50       	subi	r18, 0x01	; 1
     da6:	80 40       	sbci	r24, 0x00	; 0
     da8:	90 40       	sbci	r25, 0x00	; 0
     daa:	e1 f7       	brne	.-8      	; 0xda4 <main+0x3c>
     dac:	00 c0       	rjmp	.+0      	; 0xdae <main+0x46>
     dae:	00 00       	nop
     db0:	04 c0       	rjmp	.+8      	; 0xdba <main+0x52>
     db2:	80 91 27 01 	lds	r24, 0x0127	; 0x800127 <ace_rot+0x5>
     db6:	81 11       	cpse	r24, r1
     db8:	12 c0       	rjmp	.+36     	; 0xdde <main+0x76>
     dba:	09 e2       	ldi	r16, 0x29	; 41
     dbc:	11 e0       	ldi	r17, 0x01	; 1
     dbe:	2f e2       	ldi	r18, 0x2F	; 47
     dc0:	31 e0       	ldi	r19, 0x01	; 1
     dc2:	4b ea       	ldi	r20, 0xAB	; 171
     dc4:	51 e0       	ldi	r21, 0x01	; 1
     dc6:	62 e2       	ldi	r22, 0x22	; 34
     dc8:	71 e0       	ldi	r23, 0x01	; 1
     dca:	8e e1       	ldi	r24, 0x1E	; 30
     dcc:	91 e0       	ldi	r25, 0x01	; 1
     dce:	15 d0       	rcall	.+42     	; 0xdfa <parseSPI>
     dd0:	01 96       	adiw	r24, 0x01	; 1
     dd2:	79 f7       	brne	.-34     	; 0xdb2 <main+0x4a>
     dd4:	60 d1       	rcall	.+704    	; 0x1096 <errorHandler>
     dd6:	80 91 27 01 	lds	r24, 0x0127	; 0x800127 <ace_rot+0x5>
     dda:	88 23       	and	r24, r24
     ddc:	71 f3       	breq	.-36     	; 0xdba <main+0x52>
     dde:	10 92 27 01 	sts	0x0127, r1	; 0x800127 <ace_rot+0x5>
     de2:	20 91 22 01 	lds	r18, 0x0122	; 0x800122 <ace_rot>
     de6:	30 91 23 01 	lds	r19, 0x0123	; 0x800123 <ace_rot+0x1>
     dea:	0a e0       	ldi	r16, 0x0A	; 10
     dec:	41 e0       	ldi	r20, 0x01	; 1
     dee:	69 e2       	ldi	r22, 0x29	; 41
     df0:	71 e0       	ldi	r23, 0x01	; 1
     df2:	8e e1       	ldi	r24, 0x1E	; 30
     df4:	91 e0       	ldi	r25, 0x01	; 1
     df6:	f2 d1       	rcall	.+996    	; 0x11dc <writeSpi>
     df8:	e0 cf       	rjmp	.-64     	; 0xdba <main+0x52>

00000dfa <parseSPI>:
     dfa:	6f 92       	push	r6
     dfc:	7f 92       	push	r7
     dfe:	8f 92       	push	r8
     e00:	9f 92       	push	r9
     e02:	af 92       	push	r10
     e04:	bf 92       	push	r11
     e06:	cf 92       	push	r12
     e08:	df 92       	push	r13
     e0a:	ef 92       	push	r14
     e0c:	ff 92       	push	r15
     e0e:	0f 93       	push	r16
     e10:	1f 93       	push	r17
     e12:	cf 93       	push	r28
     e14:	df 93       	push	r29
     e16:	4c 01       	movw	r8, r24
     e18:	f9 01       	movw	r30, r18
     e1a:	e8 58       	subi	r30, 0x88	; 136
     e1c:	ff 4f       	sbci	r31, 0xFF	; 255
     e1e:	90 81       	ld	r25, Z
     e20:	91 11       	cpse	r25, r1
     e22:	11 c0       	rjmp	.+34     	; 0xe46 <parseSPI+0x4c>
     e24:	80 e0       	ldi	r24, 0x00	; 0
     e26:	90 e0       	ldi	r25, 0x00	; 0
     e28:	df 91       	pop	r29
     e2a:	cf 91       	pop	r28
     e2c:	1f 91       	pop	r17
     e2e:	0f 91       	pop	r16
     e30:	ff 90       	pop	r15
     e32:	ef 90       	pop	r14
     e34:	df 90       	pop	r13
     e36:	cf 90       	pop	r12
     e38:	bf 90       	pop	r11
     e3a:	af 90       	pop	r10
     e3c:	9f 90       	pop	r9
     e3e:	8f 90       	pop	r8
     e40:	7f 90       	pop	r7
     e42:	6f 90       	pop	r6
     e44:	08 95       	ret
     e46:	68 01       	movw	r12, r16
     e48:	e9 01       	movw	r28, r18
     e4a:	5a 01       	movw	r10, r20
     e4c:	7b 01       	movw	r14, r22
     e4e:	c9 01       	movw	r24, r18
     e50:	99 d1       	rcall	.+818    	; 0x1184 <readBuffer>
     e52:	8f 3c       	cpi	r24, 0xCF	; 207
     e54:	91 05       	cpc	r25, r1
     e56:	31 f7       	brne	.-52     	; 0xe24 <parseSPI+0x2a>
     e58:	c8 01       	movw	r24, r16
     e5a:	01 db       	rcall	.-2558   	; 0x45e <getTick>
     e5c:	3c 01       	movw	r6, r24
     e5e:	81 e0       	ldi	r24, 0x01	; 1
     e60:	80 93 aa 01 	sts	0x01AA, r24	; 0x8001aa <parsing_state>
     e64:	83 01       	movw	r16, r6
     e66:	0c 50       	subi	r16, 0x0C	; 12
     e68:	1e 4f       	sbci	r17, 0xFE	; 254
     e6a:	05 c0       	rjmp	.+10     	; 0xe76 <parseSPI+0x7c>
     e6c:	c6 01       	movw	r24, r12
     e6e:	f7 da       	rcall	.-2578   	; 0x45e <getTick>
     e70:	08 17       	cp	r16, r24
     e72:	19 07       	cpc	r17, r25
     e74:	28 f1       	brcs	.+74     	; 0xec0 <parseSPI+0xc6>
     e76:	ce 01       	movw	r24, r28
     e78:	ab d1       	rcall	.+854    	; 0x11d0 <readBufferLength>
     e7a:	89 2b       	or	r24, r25
     e7c:	b9 f3       	breq	.-18     	; 0xe6c <parseSPI+0x72>
     e7e:	ce 01       	movw	r24, r28
     e80:	81 d1       	rcall	.+770    	; 0x1184 <readBuffer>
     e82:	87 31       	cpi	r24, 0x17	; 23
     e84:	91 05       	cpc	r25, r1
     e86:	09 f4       	brne	.+2      	; 0xe8a <parseSPI+0x90>
     e88:	d5 c0       	rjmp	.+426    	; 0x1034 <parseSPI+0x23a>
     e8a:	ec f0       	brlt	.+58     	; 0xec6 <parseSPI+0xcc>
     e8c:	8c 3f       	cpi	r24, 0xFC	; 252
     e8e:	91 05       	cpc	r25, r1
     e90:	09 f4       	brne	.+2      	; 0xe94 <parseSPI+0x9a>
     e92:	e5 c0       	rjmp	.+458    	; 0x105e <parseSPI+0x264>
     e94:	0c f0       	brlt	.+2      	; 0xe98 <parseSPI+0x9e>
     e96:	49 c0       	rjmp	.+146    	; 0xf2a <parseSPI+0x130>
     e98:	89 31       	cpi	r24, 0x19	; 25
     e9a:	91 05       	cpc	r25, r1
     e9c:	09 f4       	brne	.+2      	; 0xea0 <parseSPI+0xa6>
     e9e:	71 c0       	rjmp	.+226    	; 0xf82 <parseSPI+0x188>
     ea0:	0c f4       	brge	.+2      	; 0xea4 <parseSPI+0xaa>
     ea2:	54 c0       	rjmp	.+168    	; 0xf4c <parseSPI+0x152>
     ea4:	4a 97       	sbiw	r24, 0x1a	; 26
     ea6:	e9 f4       	brne	.+58     	; 0xee2 <parseSPI+0xe8>
     ea8:	a6 01       	movw	r20, r12
     eaa:	be 01       	movw	r22, r28
     eac:	c5 01       	movw	r24, r10
     eae:	83 5a       	subi	r24, 0xA3	; 163
     eb0:	9f 4f       	sbci	r25, 0xFF	; 255
     eb2:	0d df       	rcall	.-486    	; 0xcce <bufToRGB>
     eb4:	81 e0       	ldi	r24, 0x01	; 1
     eb6:	f7 01       	movw	r30, r14
     eb8:	86 83       	std	Z+6, r24	; 0x06
     eba:	80 e0       	ldi	r24, 0x00	; 0
     ebc:	90 e0       	ldi	r25, 0x00	; 0
     ebe:	b4 cf       	rjmp	.-152    	; 0xe28 <parseSPI+0x2e>
     ec0:	8f ef       	ldi	r24, 0xFF	; 255
     ec2:	9f ef       	ldi	r25, 0xFF	; 255
     ec4:	b1 cf       	rjmp	.-158    	; 0xe28 <parseSPI+0x2e>
     ec6:	83 30       	cpi	r24, 0x03	; 3
     ec8:	91 05       	cpc	r25, r1
     eca:	09 f4       	brne	.+2      	; 0xece <parseSPI+0xd4>
     ecc:	9b c0       	rjmp	.+310    	; 0x1004 <parseSPI+0x20a>
     ece:	74 f4       	brge	.+28     	; 0xeec <parseSPI+0xf2>
     ed0:	81 30       	cpi	r24, 0x01	; 1
     ed2:	91 05       	cpc	r25, r1
     ed4:	09 f4       	brne	.+2      	; 0xed8 <parseSPI+0xde>
     ed6:	8b c0       	rjmp	.+278    	; 0xfee <parseSPI+0x1f4>
     ed8:	0c f0       	brlt	.+2      	; 0xedc <parseSPI+0xe2>
     eda:	6f c0       	rjmp	.+222    	; 0xfba <parseSPI+0x1c0>
     edc:	89 2b       	or	r24, r25
     ede:	09 f4       	brne	.+2      	; 0xee2 <parseSPI+0xe8>
     ee0:	a1 cf       	rjmp	.-190    	; 0xe24 <parseSPI+0x2a>
     ee2:	ce 01       	movw	r24, r28
     ee4:	43 d1       	rcall	.+646    	; 0x116c <bufferInit>
     ee6:	80 e0       	ldi	r24, 0x00	; 0
     ee8:	90 e0       	ldi	r25, 0x00	; 0
     eea:	9e cf       	rjmp	.-196    	; 0xe28 <parseSPI+0x2e>
     eec:	85 31       	cpi	r24, 0x15	; 21
     eee:	91 05       	cpc	r25, r1
     ef0:	09 f4       	brne	.+2      	; 0xef4 <parseSPI+0xfa>
     ef2:	cb c0       	rjmp	.+406    	; 0x108a <parseSPI+0x290>
     ef4:	0c f0       	brlt	.+2      	; 0xef8 <parseSPI+0xfe>
     ef6:	be c0       	rjmp	.+380    	; 0x1074 <parseSPI+0x27a>
     ef8:	44 97       	sbiw	r24, 0x14	; 20
     efa:	99 f7       	brne	.-26     	; 0xee2 <parseSPI+0xe8>
     efc:	fc e0       	ldi	r31, 0x0C	; 12
     efe:	6f 1a       	sub	r6, r31
     f00:	fe ef       	ldi	r31, 0xFE	; 254
     f02:	7f 0a       	sbc	r7, r31
     f04:	05 c0       	rjmp	.+10     	; 0xf10 <parseSPI+0x116>
     f06:	c6 01       	movw	r24, r12
     f08:	aa da       	rcall	.-2732   	; 0x45e <getTick>
     f0a:	68 16       	cp	r6, r24
     f0c:	79 06       	cpc	r7, r25
     f0e:	c0 f2       	brcs	.-80     	; 0xec0 <parseSPI+0xc6>
     f10:	ce 01       	movw	r24, r28
     f12:	5e d1       	rcall	.+700    	; 0x11d0 <readBufferLength>
     f14:	89 2b       	or	r24, r25
     f16:	b9 f3       	breq	.-18     	; 0xf06 <parseSPI+0x10c>
     f18:	ce 01       	movw	r24, r28
     f1a:	34 d1       	rcall	.+616    	; 0x1184 <readBuffer>
     f1c:	f5 01       	movw	r30, r10
     f1e:	e0 5a       	subi	r30, 0xA0	; 160
     f20:	ff 4f       	sbci	r31, 0xFF	; 255
     f22:	80 83       	st	Z, r24
     f24:	80 e0       	ldi	r24, 0x00	; 0
     f26:	90 e0       	ldi	r25, 0x00	; 0
     f28:	7f cf       	rjmp	.-258    	; 0xe28 <parseSPI+0x2e>
     f2a:	8e 3f       	cpi	r24, 0xFE	; 254
     f2c:	91 05       	cpc	r25, r1
     f2e:	d1 f1       	breq	.+116    	; 0xfa4 <parseSPI+0x1aa>
     f30:	74 f1       	brlt	.+92     	; 0xf8e <parseSPI+0x194>
     f32:	8f 3f       	cpi	r24, 0xFF	; 255
     f34:	91 05       	cpc	r25, r1
     f36:	a9 f6       	brne	.-86     	; 0xee2 <parseSPI+0xe8>
     f38:	04 e6       	ldi	r16, 0x64	; 100
     f3a:	21 e0       	ldi	r18, 0x01	; 1
     f3c:	30 e0       	ldi	r19, 0x00	; 0
     f3e:	4f ef       	ldi	r20, 0xFF	; 255
     f40:	b6 01       	movw	r22, r12
     f42:	c4 01       	movw	r24, r8
     f44:	4b d1       	rcall	.+662    	; 0x11dc <writeSpi>
     f46:	80 e0       	ldi	r24, 0x00	; 0
     f48:	90 e0       	ldi	r25, 0x00	; 0
     f4a:	6e cf       	rjmp	.-292    	; 0xe28 <parseSPI+0x2e>
     f4c:	fc e0       	ldi	r31, 0x0C	; 12
     f4e:	6f 1a       	sub	r6, r31
     f50:	fe ef       	ldi	r31, 0xFE	; 254
     f52:	7f 0a       	sbc	r7, r31
     f54:	06 c0       	rjmp	.+12     	; 0xf62 <parseSPI+0x168>
     f56:	c6 01       	movw	r24, r12
     f58:	82 da       	rcall	.-2812   	; 0x45e <getTick>
     f5a:	68 16       	cp	r6, r24
     f5c:	79 06       	cpc	r7, r25
     f5e:	08 f4       	brcc	.+2      	; 0xf62 <parseSPI+0x168>
     f60:	af cf       	rjmp	.-162    	; 0xec0 <parseSPI+0xc6>
     f62:	ce 01       	movw	r24, r28
     f64:	35 d1       	rcall	.+618    	; 0x11d0 <readBufferLength>
     f66:	89 2b       	or	r24, r25
     f68:	b1 f3       	breq	.-20     	; 0xf56 <parseSPI+0x15c>
     f6a:	ce 01       	movw	r24, r28
     f6c:	0b d1       	rcall	.+534    	; 0x1184 <readBuffer>
     f6e:	f5 01       	movw	r30, r10
     f70:	ee 59       	subi	r30, 0x9E	; 158
     f72:	ff 4f       	sbci	r31, 0xFF	; 255
     f74:	80 83       	st	Z, r24
     f76:	81 e0       	ldi	r24, 0x01	; 1
     f78:	f7 01       	movw	r30, r14
     f7a:	86 83       	std	Z+6, r24	; 0x06
     f7c:	80 e0       	ldi	r24, 0x00	; 0
     f7e:	90 e0       	ldi	r25, 0x00	; 0
     f80:	53 cf       	rjmp	.-346    	; 0xe28 <parseSPI+0x2e>
     f82:	a6 01       	movw	r20, r12
     f84:	be 01       	movw	r22, r28
     f86:	c5 01       	movw	r24, r10
     f88:	86 5a       	subi	r24, 0xA6	; 166
     f8a:	9f 4f       	sbci	r25, 0xFF	; 255
     f8c:	92 cf       	rjmp	.-220    	; 0xeb2 <parseSPI+0xb8>
     f8e:	ce 01       	movw	r24, r28
     f90:	1f d1       	rcall	.+574    	; 0x11d0 <readBufferLength>
     f92:	04 e6       	ldi	r16, 0x64	; 100
     f94:	9c 01       	movw	r18, r24
     f96:	4d ef       	ldi	r20, 0xFD	; 253
     f98:	b6 01       	movw	r22, r12
     f9a:	c4 01       	movw	r24, r8
     f9c:	1f d1       	rcall	.+574    	; 0x11dc <writeSpi>
     f9e:	80 e0       	ldi	r24, 0x00	; 0
     fa0:	90 e0       	ldi	r25, 0x00	; 0
     fa2:	42 cf       	rjmp	.-380    	; 0xe28 <parseSPI+0x2e>
     fa4:	84 e6       	ldi	r24, 0x64	; 100
     fa6:	e8 2e       	mov	r14, r24
     fa8:	08 e7       	ldi	r16, 0x78	; 120
     faa:	9e 01       	movw	r18, r28
     fac:	4e ef       	ldi	r20, 0xFE	; 254
     fae:	b6 01       	movw	r22, r12
     fb0:	c4 01       	movw	r24, r8
     fb2:	ab d1       	rcall	.+854    	; 0x130a <writeSpiBuffer>
     fb4:	80 e0       	ldi	r24, 0x00	; 0
     fb6:	90 e0       	ldi	r25, 0x00	; 0
     fb8:	37 cf       	rjmp	.-402    	; 0xe28 <parseSPI+0x2e>
     fba:	fc e0       	ldi	r31, 0x0C	; 12
     fbc:	6f 1a       	sub	r6, r31
     fbe:	fe ef       	ldi	r31, 0xFE	; 254
     fc0:	7f 0a       	sbc	r7, r31
     fc2:	06 c0       	rjmp	.+12     	; 0xfd0 <parseSPI+0x1d6>
     fc4:	c6 01       	movw	r24, r12
     fc6:	4b da       	rcall	.-2922   	; 0x45e <getTick>
     fc8:	68 16       	cp	r6, r24
     fca:	79 06       	cpc	r7, r25
     fcc:	08 f4       	brcc	.+2      	; 0xfd0 <parseSPI+0x1d6>
     fce:	78 cf       	rjmp	.-272    	; 0xec0 <parseSPI+0xc6>
     fd0:	ce 01       	movw	r24, r28
     fd2:	fe d0       	rcall	.+508    	; 0x11d0 <readBufferLength>
     fd4:	89 2b       	or	r24, r25
     fd6:	b1 f3       	breq	.-20     	; 0xfc4 <parseSPI+0x1ca>
     fd8:	ce 01       	movw	r24, r28
     fda:	d4 d0       	rcall	.+424    	; 0x1184 <readBuffer>
     fdc:	f7 01       	movw	r30, r14
     fde:	91 83       	std	Z+1, r25	; 0x01
     fe0:	80 83       	st	Z, r24
     fe2:	81 e0       	ldi	r24, 0x01	; 1
     fe4:	86 83       	std	Z+6, r24	; 0x06
     fe6:	85 83       	std	Z+5, r24	; 0x05
     fe8:	80 e0       	ldi	r24, 0x00	; 0
     fea:	90 e0       	ldi	r25, 0x00	; 0
     fec:	1d cf       	rjmp	.-454    	; 0xe28 <parseSPI+0x2e>
     fee:	f7 01       	movw	r30, r14
     ff0:	20 81       	ld	r18, Z
     ff2:	31 81       	ldd	r19, Z+1	; 0x01
     ff4:	0a e0       	ldi	r16, 0x0A	; 10
     ff6:	41 e0       	ldi	r20, 0x01	; 1
     ff8:	b6 01       	movw	r22, r12
     ffa:	c4 01       	movw	r24, r8
     ffc:	ef d0       	rcall	.+478    	; 0x11dc <writeSpi>
     ffe:	80 e0       	ldi	r24, 0x00	; 0
    1000:	90 e0       	ldi	r25, 0x00	; 0
    1002:	12 cf       	rjmp	.-476    	; 0xe28 <parseSPI+0x2e>
    1004:	ec e0       	ldi	r30, 0x0C	; 12
    1006:	6e 1a       	sub	r6, r30
    1008:	ee ef       	ldi	r30, 0xFE	; 254
    100a:	7e 0a       	sbc	r7, r30
    100c:	06 c0       	rjmp	.+12     	; 0x101a <parseSPI+0x220>
    100e:	c6 01       	movw	r24, r12
    1010:	26 da       	rcall	.-2996   	; 0x45e <getTick>
    1012:	68 16       	cp	r6, r24
    1014:	79 06       	cpc	r7, r25
    1016:	08 f4       	brcc	.+2      	; 0x101a <parseSPI+0x220>
    1018:	53 cf       	rjmp	.-346    	; 0xec0 <parseSPI+0xc6>
    101a:	ce 01       	movw	r24, r28
    101c:	d9 d0       	rcall	.+434    	; 0x11d0 <readBufferLength>
    101e:	89 2b       	or	r24, r25
    1020:	b1 f3       	breq	.-20     	; 0x100e <parseSPI+0x214>
    1022:	ce 01       	movw	r24, r28
    1024:	af d0       	rcall	.+350    	; 0x1184 <readBuffer>
    1026:	f5 01       	movw	r30, r10
    1028:	ec 59       	subi	r30, 0x9C	; 156
    102a:	ff 4f       	sbci	r31, 0xFF	; 255
    102c:	80 83       	st	Z, r24
    102e:	80 e0       	ldi	r24, 0x00	; 0
    1030:	90 e0       	ldi	r25, 0x00	; 0
    1032:	fa ce       	rjmp	.-524    	; 0xe28 <parseSPI+0x2e>
    1034:	8c e0       	ldi	r24, 0x0C	; 12
    1036:	68 1a       	sub	r6, r24
    1038:	8e ef       	ldi	r24, 0xFE	; 254
    103a:	78 0a       	sbc	r7, r24
    103c:	06 c0       	rjmp	.+12     	; 0x104a <parseSPI+0x250>
    103e:	c6 01       	movw	r24, r12
    1040:	0e da       	rcall	.-3044   	; 0x45e <getTick>
    1042:	68 16       	cp	r6, r24
    1044:	79 06       	cpc	r7, r25
    1046:	08 f4       	brcc	.+2      	; 0x104a <parseSPI+0x250>
    1048:	3b cf       	rjmp	.-394    	; 0xec0 <parseSPI+0xc6>
    104a:	ce 01       	movw	r24, r28
    104c:	c1 d0       	rcall	.+386    	; 0x11d0 <readBufferLength>
    104e:	89 2b       	or	r24, r25
    1050:	b1 f3       	breq	.-20     	; 0x103e <parseSPI+0x244>
    1052:	ce 01       	movw	r24, r28
    1054:	97 d0       	rcall	.+302    	; 0x1184 <readBuffer>
    1056:	f5 01       	movw	r30, r10
    1058:	ef 59       	subi	r30, 0x9F	; 159
    105a:	ff 4f       	sbci	r31, 0xFF	; 255
    105c:	8b cf       	rjmp	.-234    	; 0xf74 <parseSPI+0x17a>
    105e:	98 e0       	ldi	r25, 0x08	; 8
    1060:	88 e1       	ldi	r24, 0x18	; 24
    1062:	0f b6       	in	r0, 0x3f	; 63
    1064:	f8 94       	cli
    1066:	a8 95       	wdr
    1068:	80 93 60 00 	sts	0x0060, r24	; 0x800060 <__TEXT_REGION_LENGTH__+0x7fe060>
    106c:	0f be       	out	0x3f, r0	; 63
    106e:	90 93 60 00 	sts	0x0060, r25	; 0x800060 <__TEXT_REGION_LENGTH__+0x7fe060>
    1072:	ff cf       	rjmp	.-2      	; 0x1072 <parseSPI+0x278>
    1074:	94 e6       	ldi	r25, 0x64	; 100
    1076:	e9 2e       	mov	r14, r25
    1078:	0a e5       	ldi	r16, 0x5A	; 90
    107a:	95 01       	movw	r18, r10
    107c:	46 e1       	ldi	r20, 0x16	; 22
    107e:	b6 01       	movw	r22, r12
    1080:	c4 01       	movw	r24, r8
    1082:	43 d1       	rcall	.+646    	; 0x130a <writeSpiBuffer>
    1084:	80 e0       	ldi	r24, 0x00	; 0
    1086:	90 e0       	ldi	r25, 0x00	; 0
    1088:	cf ce       	rjmp	.-610    	; 0xe28 <parseSPI+0x2e>
    108a:	b6 01       	movw	r22, r12
    108c:	c5 01       	movw	r24, r10
    108e:	ca dd       	rcall	.-1132   	; 0xc24 <bufToRGBArray>
    1090:	80 e0       	ldi	r24, 0x00	; 0
    1092:	90 e0       	ldi	r25, 0x00	; 0
    1094:	c9 ce       	rjmp	.-622    	; 0xe28 <parseSPI+0x2e>

00001096 <errorHandler>:
    1096:	f8 94       	cli
    1098:	8a e5       	ldi	r24, 0x5A	; 90
    109a:	60 db       	rcall	.-2368   	; 0x75c <setDEMOLEDRgb>
    109c:	ff cf       	rjmp	.-2      	; 0x109c <errorHandler+0x6>

0000109e <__vector_3>:
    109e:	1f 92       	push	r1
    10a0:	0f 92       	push	r0
    10a2:	0f b6       	in	r0, 0x3f	; 63
    10a4:	0f 92       	push	r0
    10a6:	11 24       	eor	r1, r1
    10a8:	8f 93       	push	r24
    10aa:	9f 93       	push	r25
    10ac:	ef 93       	push	r30
    10ae:	ff 93       	push	r31
    10b0:	1a 9b       	sbis	0x03, 2	; 3
    10b2:	10 c0       	rjmp	.+32     	; 0x10d4 <__vector_3+0x36>
    10b4:	81 e0       	ldi	r24, 0x01	; 1
    10b6:	80 93 21 01 	sts	0x0121, r24	; 0x800121 <__data_end+0x3>
    10ba:	9e b5       	in	r25, 0x2e	; 46
    10bc:	99 23       	and	r25, r25
    10be:	99 f0       	breq	.+38     	; 0x10e6 <__vector_3+0x48>
    10c0:	90 91 1f 01 	lds	r25, 0x011F	; 0x80011f <__data_end+0x1>
    10c4:	91 11       	cpse	r25, r1
    10c6:	0f c0       	rjmp	.+30     	; 0x10e6 <__vector_3+0x48>
    10c8:	90 91 1e 01 	lds	r25, 0x011E	; 0x80011e <__data_end>
    10cc:	99 23       	and	r25, r25
    10ce:	59 f0       	breq	.+22     	; 0x10e6 <__vector_3+0x48>
    10d0:	80 93 20 01 	sts	0x0120, r24	; 0x800120 <__data_end+0x2>
    10d4:	ff 91       	pop	r31
    10d6:	ef 91       	pop	r30
    10d8:	9f 91       	pop	r25
    10da:	8f 91       	pop	r24
    10dc:	0f 90       	pop	r0
    10de:	0f be       	out	0x3f, r0	; 63
    10e0:	0f 90       	pop	r0
    10e2:	1f 90       	pop	r1
    10e4:	18 95       	reti
    10e6:	10 92 20 01 	sts	0x0120, r1	; 0x800120 <__data_end+0x2>
    10ea:	8e b5       	in	r24, 0x2e	; 46
    10ec:	80 38       	cpi	r24, 0x80	; 128
    10ee:	11 f1       	breq	.+68     	; 0x1134 <__vector_3+0x96>
    10f0:	8e b5       	in	r24, 0x2e	; 46
    10f2:	81 38       	cpi	r24, 0x81	; 129
    10f4:	19 f1       	breq	.+70     	; 0x113c <__vector_3+0x9e>
    10f6:	80 91 1e 01 	lds	r24, 0x011E	; 0x80011e <__data_end>
    10fa:	81 11       	cpse	r24, r1
    10fc:	eb cf       	rjmp	.-42     	; 0x10d4 <__vector_3+0x36>
    10fe:	9e b5       	in	r25, 0x2e	; 46
    1100:	80 91 a7 01 	lds	r24, 0x01A7	; 0x8001a7 <buf+0x78>
    1104:	87 37       	cpi	r24, 0x77	; 119
    1106:	a1 f0       	breq	.+40     	; 0x1130 <__vector_3+0x92>
    1108:	e0 91 a9 01 	lds	r30, 0x01A9	; 0x8001a9 <buf+0x7a>
    110c:	f0 e0       	ldi	r31, 0x00	; 0
    110e:	e1 5d       	subi	r30, 0xD1	; 209
    1110:	fe 4f       	sbci	r31, 0xFE	; 254
    1112:	90 83       	st	Z, r25
    1114:	80 91 a9 01 	lds	r24, 0x01A9	; 0x8001a9 <buf+0x7a>
    1118:	8f 5f       	subi	r24, 0xFF	; 255
    111a:	80 93 a9 01 	sts	0x01A9, r24	; 0x8001a9 <buf+0x7a>
    111e:	80 91 a7 01 	lds	r24, 0x01A7	; 0x8001a7 <buf+0x78>
    1122:	8f 5f       	subi	r24, 0xFF	; 255
    1124:	80 93 a7 01 	sts	0x01A7, r24	; 0x8001a7 <buf+0x78>
    1128:	80 91 a9 01 	lds	r24, 0x01A9	; 0x8001a9 <buf+0x7a>
    112c:	87 37       	cpi	r24, 0x77	; 119
    112e:	49 f0       	breq	.+18     	; 0x1142 <__vector_3+0xa4>
    1130:	1e bc       	out	0x2e, r1	; 46
    1132:	d0 cf       	rjmp	.-96     	; 0x10d4 <__vector_3+0x36>
    1134:	81 e0       	ldi	r24, 0x01	; 1
    1136:	80 93 1f 01 	sts	0x011F, r24	; 0x80011f <__data_end+0x1>
    113a:	cc cf       	rjmp	.-104    	; 0x10d4 <__vector_3+0x36>
    113c:	10 92 1f 01 	sts	0x011F, r1	; 0x80011f <__data_end+0x1>
    1140:	c9 cf       	rjmp	.-110    	; 0x10d4 <__vector_3+0x36>
    1142:	10 92 a9 01 	sts	0x01A9, r1	; 0x8001a9 <buf+0x7a>
    1146:	1e bc       	out	0x2e, r1	; 46
    1148:	c5 cf       	rjmp	.-118    	; 0x10d4 <__vector_3+0x36>

0000114a <SPIInit>:
    114a:	27 98       	cbi	0x04, 7	; 4
    114c:	2f 98       	cbi	0x05, 7	; 5
    114e:	24 9a       	sbi	0x04, 4	; 4
    1150:	26 9a       	sbi	0x04, 6	; 4
    1152:	e8 e6       	ldi	r30, 0x68	; 104
    1154:	f0 e0       	ldi	r31, 0x00	; 0
    1156:	80 81       	ld	r24, Z
    1158:	81 60       	ori	r24, 0x01	; 1
    115a:	80 83       	st	Z, r24
    115c:	eb e6       	ldi	r30, 0x6B	; 107
    115e:	f0 e0       	ldi	r31, 0x00	; 0
    1160:	80 81       	ld	r24, Z
    1162:	84 60       	ori	r24, 0x04	; 4
    1164:	80 83       	st	Z, r24
    1166:	80 e4       	ldi	r24, 0x40	; 64
    1168:	8c bd       	out	0x2c, r24	; 44
    116a:	08 95       	ret

0000116c <bufferInit>:
    116c:	fc 01       	movw	r30, r24
    116e:	e7 58       	subi	r30, 0x87	; 135
    1170:	ff 4f       	sbci	r31, 0xFF	; 255
    1172:	10 82       	st	Z, r1
    1174:	31 96       	adiw	r30, 0x01	; 1
    1176:	10 82       	st	Z, r1
    1178:	32 97       	sbiw	r30, 0x02	; 2
    117a:	10 82       	st	Z, r1
    117c:	fc 01       	movw	r30, r24
    117e:	10 82       	st	Z, r1
    1180:	11 82       	std	Z+1, r1	; 0x01
    1182:	08 95       	ret

00001184 <readBuffer>:
    1184:	cf 93       	push	r28
    1186:	df 93       	push	r29
    1188:	dc 01       	movw	r26, r24
    118a:	a8 58       	subi	r26, 0x88	; 136
    118c:	bf 4f       	sbci	r27, 0xFF	; 255
    118e:	2c 91       	ld	r18, X
    1190:	22 23       	and	r18, r18
    1192:	d9 f0       	breq	.+54     	; 0x11ca <readBuffer+0x46>
    1194:	fc 01       	movw	r30, r24
    1196:	e7 58       	subi	r30, 0x87	; 135
    1198:	ff 4f       	sbci	r31, 0xFF	; 255
    119a:	20 81       	ld	r18, Z
    119c:	ec 01       	movw	r28, r24
    119e:	c2 0f       	add	r28, r18
    11a0:	d1 1d       	adc	r29, r1
    11a2:	28 81       	ld	r18, Y
    11a4:	30 e0       	ldi	r19, 0x00	; 0
    11a6:	80 81       	ld	r24, Z
    11a8:	8f 5f       	subi	r24, 0xFF	; 255
    11aa:	80 83       	st	Z, r24
    11ac:	8c 91       	ld	r24, X
    11ae:	81 50       	subi	r24, 0x01	; 1
    11b0:	8c 93       	st	X, r24
    11b2:	80 81       	ld	r24, Z
    11b4:	87 37       	cpi	r24, 0x77	; 119
    11b6:	21 f0       	breq	.+8      	; 0x11c0 <readBuffer+0x3c>
    11b8:	c9 01       	movw	r24, r18
    11ba:	df 91       	pop	r29
    11bc:	cf 91       	pop	r28
    11be:	08 95       	ret
    11c0:	10 82       	st	Z, r1
    11c2:	c9 01       	movw	r24, r18
    11c4:	df 91       	pop	r29
    11c6:	cf 91       	pop	r28
    11c8:	08 95       	ret
    11ca:	8f ef       	ldi	r24, 0xFF	; 255
    11cc:	9f ef       	ldi	r25, 0xFF	; 255
    11ce:	f5 cf       	rjmp	.-22     	; 0x11ba <readBuffer+0x36>

000011d0 <readBufferLength>:
    11d0:	88 58       	subi	r24, 0x88	; 136
    11d2:	9f 4f       	sbci	r25, 0xFF	; 255
    11d4:	fc 01       	movw	r30, r24
    11d6:	80 81       	ld	r24, Z
    11d8:	90 e0       	ldi	r25, 0x00	; 0
    11da:	08 95       	ret

000011dc <writeSpi>:
    11dc:	3f 92       	push	r3
    11de:	4f 92       	push	r4
    11e0:	5f 92       	push	r5
    11e2:	6f 92       	push	r6
    11e4:	7f 92       	push	r7
    11e6:	8f 92       	push	r8
    11e8:	9f 92       	push	r9
    11ea:	af 92       	push	r10
    11ec:	bf 92       	push	r11
    11ee:	cf 92       	push	r12
    11f0:	df 92       	push	r13
    11f2:	ef 92       	push	r14
    11f4:	ff 92       	push	r15
    11f6:	0f 93       	push	r16
    11f8:	1f 93       	push	r17
    11fa:	cf 93       	push	r28
    11fc:	df 93       	push	r29
    11fe:	ec 01       	movw	r28, r24
    1200:	7b 01       	movw	r14, r22
    1202:	34 2e       	mov	r3, r20
    1204:	12 2f       	mov	r17, r18
    1206:	d3 2e       	mov	r13, r19
    1208:	cb 01       	movw	r24, r22
    120a:	29 d9       	rcall	.-3502   	; 0x45e <getTick>
    120c:	2c 01       	movw	r4, r24
    120e:	61 2c       	mov	r6, r1
    1210:	71 2c       	mov	r7, r1
    1212:	1a 9b       	sbis	0x03, 2	; 3
    1214:	fe cf       	rjmp	.-4      	; 0x1212 <writeSpi+0x36>
    1216:	89 81       	ldd	r24, Y+1	; 0x01
    1218:	81 11       	cpse	r24, r1
    121a:	fb cf       	rjmp	.-10     	; 0x1212 <writeSpi+0x36>
    121c:	81 e0       	ldi	r24, 0x01	; 1
    121e:	88 83       	st	Y, r24
    1220:	89 e2       	ldi	r24, 0x29	; 41
    1222:	91 e0       	ldi	r25, 0x01	; 1
    1224:	19 d9       	rcall	.-3534   	; 0x458 <disableHSKP>
    1226:	1b 82       	std	Y+3, r1	; 0x03
    1228:	8f ed       	ldi	r24, 0xDF	; 223
    122a:	c8 2e       	mov	r12, r24
    122c:	53 01       	movw	r10, r6
    122e:	42 01       	movw	r8, r4
    1230:	80 0e       	add	r8, r16
    1232:	91 1c       	adc	r9, r1
    1234:	a1 1c       	adc	r10, r1
    1236:	b1 1c       	adc	r11, r1
    1238:	ce bc       	out	0x2e, r12	; 46
    123a:	27 9a       	sbi	0x04, 7	; 4
    123c:	2f 98       	cbi	0x05, 7	; 5
    123e:	09 c0       	rjmp	.+18     	; 0x1252 <writeSpi+0x76>
    1240:	c7 01       	movw	r24, r14
    1242:	0d d9       	rcall	.-3558   	; 0x45e <getTick>
    1244:	a0 e0       	ldi	r26, 0x00	; 0
    1246:	b0 e0       	ldi	r27, 0x00	; 0
    1248:	88 16       	cp	r8, r24
    124a:	99 06       	cpc	r9, r25
    124c:	aa 06       	cpc	r10, r26
    124e:	bb 06       	cpc	r11, r27
    1250:	18 f0       	brcs	.+6      	; 0x1258 <writeSpi+0x7c>
    1252:	8b 81       	ldd	r24, Y+3	; 0x03
    1254:	88 23       	and	r24, r24
    1256:	a1 f3       	breq	.-24     	; 0x1240 <writeSpi+0x64>
    1258:	1b 82       	std	Y+3, r1	; 0x03
    125a:	8a 81       	ldd	r24, Y+2	; 0x02
    125c:	81 11       	cpse	r24, r1
    125e:	ec cf       	rjmp	.-40     	; 0x1238 <writeSpi+0x5c>
    1260:	3e bc       	out	0x2e, r3	; 46
    1262:	53 01       	movw	r10, r6
    1264:	42 01       	movw	r8, r4
    1266:	80 0e       	add	r8, r16
    1268:	91 1c       	adc	r9, r1
    126a:	a1 1c       	adc	r10, r1
    126c:	b1 1c       	adc	r11, r1
    126e:	09 c0       	rjmp	.+18     	; 0x1282 <writeSpi+0xa6>
    1270:	c7 01       	movw	r24, r14
    1272:	f5 d8       	rcall	.-3606   	; 0x45e <getTick>
    1274:	a0 e0       	ldi	r26, 0x00	; 0
    1276:	b0 e0       	ldi	r27, 0x00	; 0
    1278:	88 16       	cp	r8, r24
    127a:	99 06       	cpc	r9, r25
    127c:	aa 06       	cpc	r10, r26
    127e:	bb 06       	cpc	r11, r27
    1280:	18 f0       	brcs	.+6      	; 0x1288 <writeSpi+0xac>
    1282:	8b 81       	ldd	r24, Y+3	; 0x03
    1284:	88 23       	and	r24, r24
    1286:	a1 f3       	breq	.-24     	; 0x1270 <writeSpi+0x94>
    1288:	1b 82       	std	Y+3, r1	; 0x03
    128a:	1e bd       	out	0x2e, r17	; 46
    128c:	53 01       	movw	r10, r6
    128e:	42 01       	movw	r8, r4
    1290:	80 0e       	add	r8, r16
    1292:	91 1c       	adc	r9, r1
    1294:	a1 1c       	adc	r10, r1
    1296:	b1 1c       	adc	r11, r1
    1298:	09 c0       	rjmp	.+18     	; 0x12ac <writeSpi+0xd0>
    129a:	c7 01       	movw	r24, r14
    129c:	e0 d8       	rcall	.-3648   	; 0x45e <getTick>
    129e:	a0 e0       	ldi	r26, 0x00	; 0
    12a0:	b0 e0       	ldi	r27, 0x00	; 0
    12a2:	88 16       	cp	r8, r24
    12a4:	99 06       	cpc	r9, r25
    12a6:	aa 06       	cpc	r10, r26
    12a8:	bb 06       	cpc	r11, r27
    12aa:	18 f0       	brcs	.+6      	; 0x12b2 <writeSpi+0xd6>
    12ac:	8b 81       	ldd	r24, Y+3	; 0x03
    12ae:	88 23       	and	r24, r24
    12b0:	a1 f3       	breq	.-24     	; 0x129a <writeSpi+0xbe>
    12b2:	1b 82       	std	Y+3, r1	; 0x03
    12b4:	de bc       	out	0x2e, r13	; 46
    12b6:	40 0e       	add	r4, r16
    12b8:	51 1c       	adc	r5, r1
    12ba:	61 1c       	adc	r6, r1
    12bc:	71 1c       	adc	r7, r1
    12be:	09 c0       	rjmp	.+18     	; 0x12d2 <writeSpi+0xf6>
    12c0:	c7 01       	movw	r24, r14
    12c2:	cd d8       	rcall	.-3686   	; 0x45e <getTick>
    12c4:	a0 e0       	ldi	r26, 0x00	; 0
    12c6:	b0 e0       	ldi	r27, 0x00	; 0
    12c8:	48 16       	cp	r4, r24
    12ca:	59 06       	cpc	r5, r25
    12cc:	6a 06       	cpc	r6, r26
    12ce:	7b 06       	cpc	r7, r27
    12d0:	18 f0       	brcs	.+6      	; 0x12d8 <writeSpi+0xfc>
    12d2:	8b 81       	ldd	r24, Y+3	; 0x03
    12d4:	88 23       	and	r24, r24
    12d6:	a1 f3       	breq	.-24     	; 0x12c0 <writeSpi+0xe4>
    12d8:	1b 82       	std	Y+3, r1	; 0x03
    12da:	2f 98       	cbi	0x05, 7	; 5
    12dc:	27 98       	cbi	0x04, 7	; 4
    12de:	89 e2       	ldi	r24, 0x29	; 41
    12e0:	91 e0       	ldi	r25, 0x01	; 1
    12e2:	b6 d8       	rcall	.-3732   	; 0x450 <enableHSKP>
    12e4:	18 82       	st	Y, r1
    12e6:	df 91       	pop	r29
    12e8:	cf 91       	pop	r28
    12ea:	1f 91       	pop	r17
    12ec:	0f 91       	pop	r16
    12ee:	ff 90       	pop	r15
    12f0:	ef 90       	pop	r14
    12f2:	df 90       	pop	r13
    12f4:	cf 90       	pop	r12
    12f6:	bf 90       	pop	r11
    12f8:	af 90       	pop	r10
    12fa:	9f 90       	pop	r9
    12fc:	8f 90       	pop	r8
    12fe:	7f 90       	pop	r7
    1300:	6f 90       	pop	r6
    1302:	5f 90       	pop	r5
    1304:	4f 90       	pop	r4
    1306:	3f 90       	pop	r3
    1308:	08 95       	ret

0000130a <writeSpiBuffer>:
    130a:	2f 92       	push	r2
    130c:	3f 92       	push	r3
    130e:	4f 92       	push	r4
    1310:	5f 92       	push	r5
    1312:	6f 92       	push	r6
    1314:	7f 92       	push	r7
    1316:	8f 92       	push	r8
    1318:	9f 92       	push	r9
    131a:	af 92       	push	r10
    131c:	bf 92       	push	r11
    131e:	cf 92       	push	r12
    1320:	df 92       	push	r13
    1322:	ef 92       	push	r14
    1324:	ff 92       	push	r15
    1326:	0f 93       	push	r16
    1328:	1f 93       	push	r17
    132a:	cf 93       	push	r28
    132c:	df 93       	push	r29
    132e:	4c 01       	movw	r8, r24
    1330:	eb 01       	movw	r28, r22
    1332:	14 2f       	mov	r17, r20
    1334:	a2 2e       	mov	r10, r18
    1336:	23 2e       	mov	r2, r19
    1338:	b0 2e       	mov	r11, r16
    133a:	3e 2c       	mov	r3, r14
    133c:	cb 01       	movw	r24, r22
    133e:	8f d8       	rcall	.-3810   	; 0x45e <getTick>
    1340:	2c 01       	movw	r4, r24
    1342:	61 2c       	mov	r6, r1
    1344:	71 2c       	mov	r7, r1
    1346:	1a 9b       	sbis	0x03, 2	; 3
    1348:	fe cf       	rjmp	.-4      	; 0x1346 <writeSpiBuffer+0x3c>
    134a:	89 e2       	ldi	r24, 0x29	; 41
    134c:	91 e0       	ldi	r25, 0x01	; 1
    134e:	84 d8       	rcall	.-3832   	; 0x458 <disableHSKP>
    1350:	81 e0       	ldi	r24, 0x01	; 1
    1352:	f4 01       	movw	r30, r8
    1354:	80 83       	st	Z, r24
    1356:	8d b5       	in	r24, 0x2d	; 45
    1358:	8f ed       	ldi	r24, 0xDF	; 223
    135a:	8e bd       	out	0x2e, r24	; 46
    135c:	2f 98       	cbi	0x05, 7	; 5
    135e:	27 9a       	sbi	0x04, 7	; 4
    1360:	73 01       	movw	r14, r6
    1362:	62 01       	movw	r12, r4
    1364:	c3 0c       	add	r12, r3
    1366:	d1 1c       	adc	r13, r1
    1368:	e1 1c       	adc	r14, r1
    136a:	f1 1c       	adc	r15, r1
    136c:	0d b4       	in	r0, 0x2d	; 45
    136e:	07 fe       	sbrs	r0, 7
    1370:	02 c0       	rjmp	.+4      	; 0x1376 <writeSpiBuffer+0x6c>
    1372:	1a 99       	sbic	0x03, 2	; 3
    1374:	09 c0       	rjmp	.+18     	; 0x1388 <writeSpiBuffer+0x7e>
    1376:	ce 01       	movw	r24, r28
    1378:	72 d8       	rcall	.-3868   	; 0x45e <getTick>
    137a:	a0 e0       	ldi	r26, 0x00	; 0
    137c:	b0 e0       	ldi	r27, 0x00	; 0
    137e:	c8 16       	cp	r12, r24
    1380:	d9 06       	cpc	r13, r25
    1382:	ea 06       	cpc	r14, r26
    1384:	fb 06       	cpc	r15, r27
    1386:	90 f7       	brcc	.-28     	; 0x136c <writeSpiBuffer+0x62>
    1388:	1e bd       	out	0x2e, r17	; 46
    138a:	73 01       	movw	r14, r6
    138c:	62 01       	movw	r12, r4
    138e:	c3 0c       	add	r12, r3
    1390:	d1 1c       	adc	r13, r1
    1392:	e1 1c       	adc	r14, r1
    1394:	f1 1c       	adc	r15, r1
    1396:	0d b4       	in	r0, 0x2d	; 45
    1398:	07 fe       	sbrs	r0, 7
    139a:	02 c0       	rjmp	.+4      	; 0x13a0 <writeSpiBuffer+0x96>
    139c:	1a 99       	sbic	0x03, 2	; 3
    139e:	09 c0       	rjmp	.+18     	; 0x13b2 <writeSpiBuffer+0xa8>
    13a0:	ce 01       	movw	r24, r28
    13a2:	5d d8       	rcall	.-3910   	; 0x45e <getTick>
    13a4:	a0 e0       	ldi	r26, 0x00	; 0
    13a6:	b0 e0       	ldi	r27, 0x00	; 0
    13a8:	c8 16       	cp	r12, r24
    13aa:	d9 06       	cpc	r13, r25
    13ac:	ea 06       	cpc	r14, r26
    13ae:	fb 06       	cpc	r15, r27
    13b0:	90 f7       	brcc	.-28     	; 0x1396 <writeSpiBuffer+0x8c>
    13b2:	be bc       	out	0x2e, r11	; 46
    13b4:	bb 20       	and	r11, r11
    13b6:	09 f1       	breq	.+66     	; 0x13fa <writeSpiBuffer+0xf0>
    13b8:	0a 2d       	mov	r16, r10
    13ba:	12 2d       	mov	r17, r2
    13bc:	c8 01       	movw	r24, r16
    13be:	8b 0d       	add	r24, r11
    13c0:	91 1d       	adc	r25, r1
    13c2:	5c 01       	movw	r10, r24
    13c4:	73 01       	movw	r14, r6
    13c6:	62 01       	movw	r12, r4
    13c8:	c3 0c       	add	r12, r3
    13ca:	d1 1c       	adc	r13, r1
    13cc:	e1 1c       	adc	r14, r1
    13ce:	f1 1c       	adc	r15, r1
    13d0:	0d b4       	in	r0, 0x2d	; 45
    13d2:	07 fe       	sbrs	r0, 7
    13d4:	02 c0       	rjmp	.+4      	; 0x13da <writeSpiBuffer+0xd0>
    13d6:	1a 99       	sbic	0x03, 2	; 3
    13d8:	09 c0       	rjmp	.+18     	; 0x13ec <writeSpiBuffer+0xe2>
    13da:	ce 01       	movw	r24, r28
    13dc:	40 d8       	rcall	.-3968   	; 0x45e <getTick>
    13de:	a0 e0       	ldi	r26, 0x00	; 0
    13e0:	b0 e0       	ldi	r27, 0x00	; 0
    13e2:	c8 16       	cp	r12, r24
    13e4:	d9 06       	cpc	r13, r25
    13e6:	ea 06       	cpc	r14, r26
    13e8:	fb 06       	cpc	r15, r27
    13ea:	90 f7       	brcc	.-28     	; 0x13d0 <writeSpiBuffer+0xc6>
    13ec:	f8 01       	movw	r30, r16
    13ee:	81 91       	ld	r24, Z+
    13f0:	8f 01       	movw	r16, r30
    13f2:	8e bd       	out	0x2e, r24	; 46
    13f4:	ea 15       	cp	r30, r10
    13f6:	fb 05       	cpc	r31, r11
    13f8:	59 f7       	brne	.-42     	; 0x13d0 <writeSpiBuffer+0xc6>
    13fa:	43 0c       	add	r4, r3
    13fc:	51 1c       	adc	r5, r1
    13fe:	61 1c       	adc	r6, r1
    1400:	71 1c       	adc	r7, r1
    1402:	0d b4       	in	r0, 0x2d	; 45
    1404:	07 fe       	sbrs	r0, 7
    1406:	02 c0       	rjmp	.+4      	; 0x140c <writeSpiBuffer+0x102>
    1408:	1a 99       	sbic	0x03, 2	; 3
    140a:	09 c0       	rjmp	.+18     	; 0x141e <writeSpiBuffer+0x114>
    140c:	ce 01       	movw	r24, r28
    140e:	27 d8       	rcall	.-4018   	; 0x45e <getTick>
    1410:	a0 e0       	ldi	r26, 0x00	; 0
    1412:	b0 e0       	ldi	r27, 0x00	; 0
    1414:	48 16       	cp	r4, r24
    1416:	59 06       	cpc	r5, r25
    1418:	6a 06       	cpc	r6, r26
    141a:	7b 06       	cpc	r7, r27
    141c:	90 f7       	brcc	.-28     	; 0x1402 <writeSpiBuffer+0xf8>
    141e:	2f 98       	cbi	0x05, 7	; 5
    1420:	27 98       	cbi	0x04, 7	; 4
    1422:	89 e2       	ldi	r24, 0x29	; 41
    1424:	91 e0       	ldi	r25, 0x01	; 1
    1426:	14 d8       	rcall	.-4056   	; 0x450 <enableHSKP>
    1428:	f4 01       	movw	r30, r8
    142a:	10 82       	st	Z, r1
    142c:	df 91       	pop	r29
    142e:	cf 91       	pop	r28
    1430:	1f 91       	pop	r17
    1432:	0f 91       	pop	r16
    1434:	ff 90       	pop	r15
    1436:	ef 90       	pop	r14
    1438:	df 90       	pop	r13
    143a:	cf 90       	pop	r12
    143c:	bf 90       	pop	r11
    143e:	af 90       	pop	r10
    1440:	9f 90       	pop	r9
    1442:	8f 90       	pop	r8
    1444:	7f 90       	pop	r7
    1446:	6f 90       	pop	r6
    1448:	5f 90       	pop	r5
    144a:	4f 90       	pop	r4
    144c:	3f 90       	pop	r3
    144e:	2f 90       	pop	r2
    1450:	08 95       	ret

00001452 <__divsf3>:
    1452:	0c d0       	rcall	.+24     	; 0x146c <__divsf3x>
    1454:	e6 c0       	rjmp	.+460    	; 0x1622 <__fp_round>
    1456:	de d0       	rcall	.+444    	; 0x1614 <__fp_pscB>
    1458:	40 f0       	brcs	.+16     	; 0x146a <__divsf3+0x18>
    145a:	d5 d0       	rcall	.+426    	; 0x1606 <__fp_pscA>
    145c:	30 f0       	brcs	.+12     	; 0x146a <__divsf3+0x18>
    145e:	21 f4       	brne	.+8      	; 0x1468 <__divsf3+0x16>
    1460:	5f 3f       	cpi	r21, 0xFF	; 255
    1462:	19 f0       	breq	.+6      	; 0x146a <__divsf3+0x18>
    1464:	c7 c0       	rjmp	.+398    	; 0x15f4 <__fp_inf>
    1466:	51 11       	cpse	r21, r1
    1468:	10 c1       	rjmp	.+544    	; 0x168a <__fp_szero>
    146a:	ca c0       	rjmp	.+404    	; 0x1600 <__fp_nan>

0000146c <__divsf3x>:
    146c:	eb d0       	rcall	.+470    	; 0x1644 <__fp_split3>
    146e:	98 f3       	brcs	.-26     	; 0x1456 <__divsf3+0x4>

00001470 <__divsf3_pse>:
    1470:	99 23       	and	r25, r25
    1472:	c9 f3       	breq	.-14     	; 0x1466 <__divsf3+0x14>
    1474:	55 23       	and	r21, r21
    1476:	b1 f3       	breq	.-20     	; 0x1464 <__divsf3+0x12>
    1478:	95 1b       	sub	r25, r21
    147a:	55 0b       	sbc	r21, r21
    147c:	bb 27       	eor	r27, r27
    147e:	aa 27       	eor	r26, r26
    1480:	62 17       	cp	r22, r18
    1482:	73 07       	cpc	r23, r19
    1484:	84 07       	cpc	r24, r20
    1486:	38 f0       	brcs	.+14     	; 0x1496 <__divsf3_pse+0x26>
    1488:	9f 5f       	subi	r25, 0xFF	; 255
    148a:	5f 4f       	sbci	r21, 0xFF	; 255
    148c:	22 0f       	add	r18, r18
    148e:	33 1f       	adc	r19, r19
    1490:	44 1f       	adc	r20, r20
    1492:	aa 1f       	adc	r26, r26
    1494:	a9 f3       	breq	.-22     	; 0x1480 <__divsf3_pse+0x10>
    1496:	33 d0       	rcall	.+102    	; 0x14fe <__divsf3_pse+0x8e>
    1498:	0e 2e       	mov	r0, r30
    149a:	3a f0       	brmi	.+14     	; 0x14aa <__divsf3_pse+0x3a>
    149c:	e0 e8       	ldi	r30, 0x80	; 128
    149e:	30 d0       	rcall	.+96     	; 0x1500 <__divsf3_pse+0x90>
    14a0:	91 50       	subi	r25, 0x01	; 1
    14a2:	50 40       	sbci	r21, 0x00	; 0
    14a4:	e6 95       	lsr	r30
    14a6:	00 1c       	adc	r0, r0
    14a8:	ca f7       	brpl	.-14     	; 0x149c <__divsf3_pse+0x2c>
    14aa:	29 d0       	rcall	.+82     	; 0x14fe <__divsf3_pse+0x8e>
    14ac:	fe 2f       	mov	r31, r30
    14ae:	27 d0       	rcall	.+78     	; 0x14fe <__divsf3_pse+0x8e>
    14b0:	66 0f       	add	r22, r22
    14b2:	77 1f       	adc	r23, r23
    14b4:	88 1f       	adc	r24, r24
    14b6:	bb 1f       	adc	r27, r27
    14b8:	26 17       	cp	r18, r22
    14ba:	37 07       	cpc	r19, r23
    14bc:	48 07       	cpc	r20, r24
    14be:	ab 07       	cpc	r26, r27
    14c0:	b0 e8       	ldi	r27, 0x80	; 128
    14c2:	09 f0       	breq	.+2      	; 0x14c6 <__divsf3_pse+0x56>
    14c4:	bb 0b       	sbc	r27, r27
    14c6:	80 2d       	mov	r24, r0
    14c8:	bf 01       	movw	r22, r30
    14ca:	ff 27       	eor	r31, r31
    14cc:	93 58       	subi	r25, 0x83	; 131
    14ce:	5f 4f       	sbci	r21, 0xFF	; 255
    14d0:	2a f0       	brmi	.+10     	; 0x14dc <__divsf3_pse+0x6c>
    14d2:	9e 3f       	cpi	r25, 0xFE	; 254
    14d4:	51 05       	cpc	r21, r1
    14d6:	68 f0       	brcs	.+26     	; 0x14f2 <__divsf3_pse+0x82>
    14d8:	8d c0       	rjmp	.+282    	; 0x15f4 <__fp_inf>
    14da:	d7 c0       	rjmp	.+430    	; 0x168a <__fp_szero>
    14dc:	5f 3f       	cpi	r21, 0xFF	; 255
    14de:	ec f3       	brlt	.-6      	; 0x14da <__divsf3_pse+0x6a>
    14e0:	98 3e       	cpi	r25, 0xE8	; 232
    14e2:	dc f3       	brlt	.-10     	; 0x14da <__divsf3_pse+0x6a>
    14e4:	86 95       	lsr	r24
    14e6:	77 95       	ror	r23
    14e8:	67 95       	ror	r22
    14ea:	b7 95       	ror	r27
    14ec:	f7 95       	ror	r31
    14ee:	9f 5f       	subi	r25, 0xFF	; 255
    14f0:	c9 f7       	brne	.-14     	; 0x14e4 <__divsf3_pse+0x74>
    14f2:	88 0f       	add	r24, r24
    14f4:	91 1d       	adc	r25, r1
    14f6:	96 95       	lsr	r25
    14f8:	87 95       	ror	r24
    14fa:	97 f9       	bld	r25, 7
    14fc:	08 95       	ret
    14fe:	e1 e0       	ldi	r30, 0x01	; 1
    1500:	66 0f       	add	r22, r22
    1502:	77 1f       	adc	r23, r23
    1504:	88 1f       	adc	r24, r24
    1506:	bb 1f       	adc	r27, r27
    1508:	62 17       	cp	r22, r18
    150a:	73 07       	cpc	r23, r19
    150c:	84 07       	cpc	r24, r20
    150e:	ba 07       	cpc	r27, r26
    1510:	20 f0       	brcs	.+8      	; 0x151a <__divsf3_pse+0xaa>
    1512:	62 1b       	sub	r22, r18
    1514:	73 0b       	sbc	r23, r19
    1516:	84 0b       	sbc	r24, r20
    1518:	ba 0b       	sbc	r27, r26
    151a:	ee 1f       	adc	r30, r30
    151c:	88 f7       	brcc	.-30     	; 0x1500 <__divsf3_pse+0x90>
    151e:	e0 95       	com	r30
    1520:	08 95       	ret

00001522 <__fixunssfsi>:
    1522:	98 d0       	rcall	.+304    	; 0x1654 <__fp_splitA>
    1524:	88 f0       	brcs	.+34     	; 0x1548 <__fixunssfsi+0x26>
    1526:	9f 57       	subi	r25, 0x7F	; 127
    1528:	90 f0       	brcs	.+36     	; 0x154e <__fixunssfsi+0x2c>
    152a:	b9 2f       	mov	r27, r25
    152c:	99 27       	eor	r25, r25
    152e:	b7 51       	subi	r27, 0x17	; 23
    1530:	a0 f0       	brcs	.+40     	; 0x155a <__fixunssfsi+0x38>
    1532:	d1 f0       	breq	.+52     	; 0x1568 <__fixunssfsi+0x46>
    1534:	66 0f       	add	r22, r22
    1536:	77 1f       	adc	r23, r23
    1538:	88 1f       	adc	r24, r24
    153a:	99 1f       	adc	r25, r25
    153c:	1a f0       	brmi	.+6      	; 0x1544 <__fixunssfsi+0x22>
    153e:	ba 95       	dec	r27
    1540:	c9 f7       	brne	.-14     	; 0x1534 <__fixunssfsi+0x12>
    1542:	12 c0       	rjmp	.+36     	; 0x1568 <__fixunssfsi+0x46>
    1544:	b1 30       	cpi	r27, 0x01	; 1
    1546:	81 f0       	breq	.+32     	; 0x1568 <__fixunssfsi+0x46>
    1548:	9f d0       	rcall	.+318    	; 0x1688 <__fp_zero>
    154a:	b1 e0       	ldi	r27, 0x01	; 1
    154c:	08 95       	ret
    154e:	9c c0       	rjmp	.+312    	; 0x1688 <__fp_zero>
    1550:	67 2f       	mov	r22, r23
    1552:	78 2f       	mov	r23, r24
    1554:	88 27       	eor	r24, r24
    1556:	b8 5f       	subi	r27, 0xF8	; 248
    1558:	39 f0       	breq	.+14     	; 0x1568 <__fixunssfsi+0x46>
    155a:	b9 3f       	cpi	r27, 0xF9	; 249
    155c:	cc f3       	brlt	.-14     	; 0x1550 <__fixunssfsi+0x2e>
    155e:	86 95       	lsr	r24
    1560:	77 95       	ror	r23
    1562:	67 95       	ror	r22
    1564:	b3 95       	inc	r27
    1566:	d9 f7       	brne	.-10     	; 0x155e <__fixunssfsi+0x3c>
    1568:	3e f4       	brtc	.+14     	; 0x1578 <__fixunssfsi+0x56>
    156a:	90 95       	com	r25
    156c:	80 95       	com	r24
    156e:	70 95       	com	r23
    1570:	61 95       	neg	r22
    1572:	7f 4f       	sbci	r23, 0xFF	; 255
    1574:	8f 4f       	sbci	r24, 0xFF	; 255
    1576:	9f 4f       	sbci	r25, 0xFF	; 255
    1578:	08 95       	ret

0000157a <__floatunsisf>:
    157a:	e8 94       	clt
    157c:	09 c0       	rjmp	.+18     	; 0x1590 <__floatsisf+0x12>

0000157e <__floatsisf>:
    157e:	97 fb       	bst	r25, 7
    1580:	3e f4       	brtc	.+14     	; 0x1590 <__floatsisf+0x12>
    1582:	90 95       	com	r25
    1584:	80 95       	com	r24
    1586:	70 95       	com	r23
    1588:	61 95       	neg	r22
    158a:	7f 4f       	sbci	r23, 0xFF	; 255
    158c:	8f 4f       	sbci	r24, 0xFF	; 255
    158e:	9f 4f       	sbci	r25, 0xFF	; 255
    1590:	99 23       	and	r25, r25
    1592:	a9 f0       	breq	.+42     	; 0x15be <__floatsisf+0x40>
    1594:	f9 2f       	mov	r31, r25
    1596:	96 e9       	ldi	r25, 0x96	; 150
    1598:	bb 27       	eor	r27, r27
    159a:	93 95       	inc	r25
    159c:	f6 95       	lsr	r31
    159e:	87 95       	ror	r24
    15a0:	77 95       	ror	r23
    15a2:	67 95       	ror	r22
    15a4:	b7 95       	ror	r27
    15a6:	f1 11       	cpse	r31, r1
    15a8:	f8 cf       	rjmp	.-16     	; 0x159a <__floatsisf+0x1c>
    15aa:	fa f4       	brpl	.+62     	; 0x15ea <__floatsisf+0x6c>
    15ac:	bb 0f       	add	r27, r27
    15ae:	11 f4       	brne	.+4      	; 0x15b4 <__floatsisf+0x36>
    15b0:	60 ff       	sbrs	r22, 0
    15b2:	1b c0       	rjmp	.+54     	; 0x15ea <__floatsisf+0x6c>
    15b4:	6f 5f       	subi	r22, 0xFF	; 255
    15b6:	7f 4f       	sbci	r23, 0xFF	; 255
    15b8:	8f 4f       	sbci	r24, 0xFF	; 255
    15ba:	9f 4f       	sbci	r25, 0xFF	; 255
    15bc:	16 c0       	rjmp	.+44     	; 0x15ea <__floatsisf+0x6c>
    15be:	88 23       	and	r24, r24
    15c0:	11 f0       	breq	.+4      	; 0x15c6 <__floatsisf+0x48>
    15c2:	96 e9       	ldi	r25, 0x96	; 150
    15c4:	11 c0       	rjmp	.+34     	; 0x15e8 <__floatsisf+0x6a>
    15c6:	77 23       	and	r23, r23
    15c8:	21 f0       	breq	.+8      	; 0x15d2 <__floatsisf+0x54>
    15ca:	9e e8       	ldi	r25, 0x8E	; 142
    15cc:	87 2f       	mov	r24, r23
    15ce:	76 2f       	mov	r23, r22
    15d0:	05 c0       	rjmp	.+10     	; 0x15dc <__floatsisf+0x5e>
    15d2:	66 23       	and	r22, r22
    15d4:	71 f0       	breq	.+28     	; 0x15f2 <__floatsisf+0x74>
    15d6:	96 e8       	ldi	r25, 0x86	; 134
    15d8:	86 2f       	mov	r24, r22
    15da:	70 e0       	ldi	r23, 0x00	; 0
    15dc:	60 e0       	ldi	r22, 0x00	; 0
    15de:	2a f0       	brmi	.+10     	; 0x15ea <__floatsisf+0x6c>
    15e0:	9a 95       	dec	r25
    15e2:	66 0f       	add	r22, r22
    15e4:	77 1f       	adc	r23, r23
    15e6:	88 1f       	adc	r24, r24
    15e8:	da f7       	brpl	.-10     	; 0x15e0 <__floatsisf+0x62>
    15ea:	88 0f       	add	r24, r24
    15ec:	96 95       	lsr	r25
    15ee:	87 95       	ror	r24
    15f0:	97 f9       	bld	r25, 7
    15f2:	08 95       	ret

000015f4 <__fp_inf>:
    15f4:	97 f9       	bld	r25, 7
    15f6:	9f 67       	ori	r25, 0x7F	; 127
    15f8:	80 e8       	ldi	r24, 0x80	; 128
    15fa:	70 e0       	ldi	r23, 0x00	; 0
    15fc:	60 e0       	ldi	r22, 0x00	; 0
    15fe:	08 95       	ret

00001600 <__fp_nan>:
    1600:	9f ef       	ldi	r25, 0xFF	; 255
    1602:	80 ec       	ldi	r24, 0xC0	; 192
    1604:	08 95       	ret

00001606 <__fp_pscA>:
    1606:	00 24       	eor	r0, r0
    1608:	0a 94       	dec	r0
    160a:	16 16       	cp	r1, r22
    160c:	17 06       	cpc	r1, r23
    160e:	18 06       	cpc	r1, r24
    1610:	09 06       	cpc	r0, r25
    1612:	08 95       	ret

00001614 <__fp_pscB>:
    1614:	00 24       	eor	r0, r0
    1616:	0a 94       	dec	r0
    1618:	12 16       	cp	r1, r18
    161a:	13 06       	cpc	r1, r19
    161c:	14 06       	cpc	r1, r20
    161e:	05 06       	cpc	r0, r21
    1620:	08 95       	ret

00001622 <__fp_round>:
    1622:	09 2e       	mov	r0, r25
    1624:	03 94       	inc	r0
    1626:	00 0c       	add	r0, r0
    1628:	11 f4       	brne	.+4      	; 0x162e <__fp_round+0xc>
    162a:	88 23       	and	r24, r24
    162c:	52 f0       	brmi	.+20     	; 0x1642 <__fp_round+0x20>
    162e:	bb 0f       	add	r27, r27
    1630:	40 f4       	brcc	.+16     	; 0x1642 <__fp_round+0x20>
    1632:	bf 2b       	or	r27, r31
    1634:	11 f4       	brne	.+4      	; 0x163a <__fp_round+0x18>
    1636:	60 ff       	sbrs	r22, 0
    1638:	04 c0       	rjmp	.+8      	; 0x1642 <__fp_round+0x20>
    163a:	6f 5f       	subi	r22, 0xFF	; 255
    163c:	7f 4f       	sbci	r23, 0xFF	; 255
    163e:	8f 4f       	sbci	r24, 0xFF	; 255
    1640:	9f 4f       	sbci	r25, 0xFF	; 255
    1642:	08 95       	ret

00001644 <__fp_split3>:
    1644:	57 fd       	sbrc	r21, 7
    1646:	90 58       	subi	r25, 0x80	; 128
    1648:	44 0f       	add	r20, r20
    164a:	55 1f       	adc	r21, r21
    164c:	59 f0       	breq	.+22     	; 0x1664 <__fp_splitA+0x10>
    164e:	5f 3f       	cpi	r21, 0xFF	; 255
    1650:	71 f0       	breq	.+28     	; 0x166e <__fp_splitA+0x1a>
    1652:	47 95       	ror	r20

00001654 <__fp_splitA>:
    1654:	88 0f       	add	r24, r24
    1656:	97 fb       	bst	r25, 7
    1658:	99 1f       	adc	r25, r25
    165a:	61 f0       	breq	.+24     	; 0x1674 <__fp_splitA+0x20>
    165c:	9f 3f       	cpi	r25, 0xFF	; 255
    165e:	79 f0       	breq	.+30     	; 0x167e <__fp_splitA+0x2a>
    1660:	87 95       	ror	r24
    1662:	08 95       	ret
    1664:	12 16       	cp	r1, r18
    1666:	13 06       	cpc	r1, r19
    1668:	14 06       	cpc	r1, r20
    166a:	55 1f       	adc	r21, r21
    166c:	f2 cf       	rjmp	.-28     	; 0x1652 <__fp_split3+0xe>
    166e:	46 95       	lsr	r20
    1670:	f1 df       	rcall	.-30     	; 0x1654 <__fp_splitA>
    1672:	08 c0       	rjmp	.+16     	; 0x1684 <__fp_splitA+0x30>
    1674:	16 16       	cp	r1, r22
    1676:	17 06       	cpc	r1, r23
    1678:	18 06       	cpc	r1, r24
    167a:	99 1f       	adc	r25, r25
    167c:	f1 cf       	rjmp	.-30     	; 0x1660 <__fp_splitA+0xc>
    167e:	86 95       	lsr	r24
    1680:	71 05       	cpc	r23, r1
    1682:	61 05       	cpc	r22, r1
    1684:	08 94       	sec
    1686:	08 95       	ret

00001688 <__fp_zero>:
    1688:	e8 94       	clt

0000168a <__fp_szero>:
    168a:	bb 27       	eor	r27, r27
    168c:	66 27       	eor	r22, r22
    168e:	77 27       	eor	r23, r23
    1690:	cb 01       	movw	r24, r22
    1692:	97 f9       	bld	r25, 7
    1694:	08 95       	ret

00001696 <__mulsf3>:
    1696:	0a d0       	rcall	.+20     	; 0x16ac <__mulsf3x>
    1698:	c4 cf       	rjmp	.-120    	; 0x1622 <__fp_round>
    169a:	b5 df       	rcall	.-150    	; 0x1606 <__fp_pscA>
    169c:	28 f0       	brcs	.+10     	; 0x16a8 <__mulsf3+0x12>
    169e:	ba df       	rcall	.-140    	; 0x1614 <__fp_pscB>
    16a0:	18 f0       	brcs	.+6      	; 0x16a8 <__mulsf3+0x12>
    16a2:	95 23       	and	r25, r21
    16a4:	09 f0       	breq	.+2      	; 0x16a8 <__mulsf3+0x12>
    16a6:	a6 cf       	rjmp	.-180    	; 0x15f4 <__fp_inf>
    16a8:	ab cf       	rjmp	.-170    	; 0x1600 <__fp_nan>
    16aa:	ef cf       	rjmp	.-34     	; 0x168a <__fp_szero>

000016ac <__mulsf3x>:
    16ac:	cb df       	rcall	.-106    	; 0x1644 <__fp_split3>
    16ae:	a8 f3       	brcs	.-22     	; 0x169a <__mulsf3+0x4>

000016b0 <__mulsf3_pse>:
    16b0:	99 23       	and	r25, r25
    16b2:	d9 f3       	breq	.-10     	; 0x16aa <__mulsf3+0x14>
    16b4:	55 23       	and	r21, r21
    16b6:	c9 f3       	breq	.-14     	; 0x16aa <__mulsf3+0x14>
    16b8:	95 0f       	add	r25, r21
    16ba:	50 e0       	ldi	r21, 0x00	; 0
    16bc:	55 1f       	adc	r21, r21
    16be:	aa 27       	eor	r26, r26
    16c0:	ee 27       	eor	r30, r30
    16c2:	ff 27       	eor	r31, r31
    16c4:	bb 27       	eor	r27, r27
    16c6:	00 24       	eor	r0, r0
    16c8:	08 94       	sec
    16ca:	67 95       	ror	r22
    16cc:	20 f4       	brcc	.+8      	; 0x16d6 <__mulsf3_pse+0x26>
    16ce:	e2 0f       	add	r30, r18
    16d0:	f3 1f       	adc	r31, r19
    16d2:	b4 1f       	adc	r27, r20
    16d4:	0a 1e       	adc	r0, r26
    16d6:	22 0f       	add	r18, r18
    16d8:	33 1f       	adc	r19, r19
    16da:	44 1f       	adc	r20, r20
    16dc:	aa 1f       	adc	r26, r26
    16de:	66 95       	lsr	r22
    16e0:	a9 f7       	brne	.-22     	; 0x16cc <__mulsf3_pse+0x1c>
    16e2:	77 95       	ror	r23
    16e4:	30 f4       	brcc	.+12     	; 0x16f2 <__mulsf3_pse+0x42>
    16e6:	f3 0f       	add	r31, r19
    16e8:	b4 1f       	adc	r27, r20
    16ea:	0a 1e       	adc	r0, r26
    16ec:	12 1e       	adc	r1, r18
    16ee:	08 f4       	brcc	.+2      	; 0x16f2 <__mulsf3_pse+0x42>
    16f0:	63 95       	inc	r22
    16f2:	33 0f       	add	r19, r19
    16f4:	44 1f       	adc	r20, r20
    16f6:	aa 1f       	adc	r26, r26
    16f8:	22 1f       	adc	r18, r18
    16fa:	76 95       	lsr	r23
    16fc:	99 f7       	brne	.-26     	; 0x16e4 <__mulsf3_pse+0x34>
    16fe:	87 95       	ror	r24
    1700:	20 f4       	brcc	.+8      	; 0x170a <__mulsf3_pse+0x5a>
    1702:	b4 0f       	add	r27, r20
    1704:	0a 1e       	adc	r0, r26
    1706:	12 1e       	adc	r1, r18
    1708:	63 1f       	adc	r22, r19
    170a:	44 0f       	add	r20, r20
    170c:	aa 1f       	adc	r26, r26
    170e:	22 1f       	adc	r18, r18
    1710:	33 1f       	adc	r19, r19
    1712:	86 95       	lsr	r24
    1714:	a9 f7       	brne	.-22     	; 0x1700 <__mulsf3_pse+0x50>
    1716:	86 2f       	mov	r24, r22
    1718:	71 2d       	mov	r23, r1
    171a:	60 2d       	mov	r22, r0
    171c:	11 24       	eor	r1, r1
    171e:	9f 57       	subi	r25, 0x7F	; 127
    1720:	50 40       	sbci	r21, 0x00	; 0
    1722:	8a f0       	brmi	.+34     	; 0x1746 <__mulsf3_pse+0x96>
    1724:	e1 f0       	breq	.+56     	; 0x175e <__mulsf3_pse+0xae>
    1726:	88 23       	and	r24, r24
    1728:	4a f0       	brmi	.+18     	; 0x173c <__mulsf3_pse+0x8c>
    172a:	ee 0f       	add	r30, r30
    172c:	ff 1f       	adc	r31, r31
    172e:	bb 1f       	adc	r27, r27
    1730:	66 1f       	adc	r22, r22
    1732:	77 1f       	adc	r23, r23
    1734:	88 1f       	adc	r24, r24
    1736:	91 50       	subi	r25, 0x01	; 1
    1738:	50 40       	sbci	r21, 0x00	; 0
    173a:	a9 f7       	brne	.-22     	; 0x1726 <__mulsf3_pse+0x76>
    173c:	9e 3f       	cpi	r25, 0xFE	; 254
    173e:	51 05       	cpc	r21, r1
    1740:	70 f0       	brcs	.+28     	; 0x175e <__mulsf3_pse+0xae>
    1742:	58 cf       	rjmp	.-336    	; 0x15f4 <__fp_inf>
    1744:	a2 cf       	rjmp	.-188    	; 0x168a <__fp_szero>
    1746:	5f 3f       	cpi	r21, 0xFF	; 255
    1748:	ec f3       	brlt	.-6      	; 0x1744 <__mulsf3_pse+0x94>
    174a:	98 3e       	cpi	r25, 0xE8	; 232
    174c:	dc f3       	brlt	.-10     	; 0x1744 <__mulsf3_pse+0x94>
    174e:	86 95       	lsr	r24
    1750:	77 95       	ror	r23
    1752:	67 95       	ror	r22
    1754:	b7 95       	ror	r27
    1756:	f7 95       	ror	r31
    1758:	e7 95       	ror	r30
    175a:	9f 5f       	subi	r25, 0xFF	; 255
    175c:	c1 f7       	brne	.-16     	; 0x174e <__mulsf3_pse+0x9e>
    175e:	fe 2b       	or	r31, r30
    1760:	88 0f       	add	r24, r24
    1762:	91 1d       	adc	r25, r1
    1764:	96 95       	lsr	r25
    1766:	87 95       	ror	r24
    1768:	97 f9       	bld	r25, 7
    176a:	08 95       	ret

0000176c <_exit>:
    176c:	f8 94       	cli

0000176e <__stop_program>:
    176e:	ff cf       	rjmp	.-2      	; 0x176e <__stop_program>
