
Led ring ACE.elf:     file format elf32-avr

Sections:
Idx Name          Size      VMA       LMA       File off  Algn
  0 .data         0000001e  00800100  000009ce  00000a62  2**0
                  CONTENTS, ALLOC, LOAD, DATA
  1 .text         000009ce  00000000  00000000  00000094  2**1
                  CONTENTS, ALLOC, LOAD, READONLY, CODE
  2 .bss          000000c9  0080011e  0080011e  00000a80  2**0
                  ALLOC
  3 .comment      00000030  00000000  00000000  00000a80  2**0
                  CONTENTS, READONLY
  4 .note.gnu.avr.deviceinfo 0000003c  00000000  00000000  00000ab0  2**2
                  CONTENTS, READONLY
  5 .debug_info   00000576  00000000  00000000  00000aec  2**0
                  CONTENTS, READONLY, DEBUGGING
  6 .debug_abbrev 0000052b  00000000  00000000  00001062  2**0
                  CONTENTS, READONLY, DEBUGGING
  7 .debug_line   00000110  00000000  00000000  0000158d  2**0
                  CONTENTS, READONLY, DEBUGGING
  8 .debug_str    000001d9  00000000  00000000  0000169d  2**0
                  CONTENTS, READONLY, DEBUGGING

Disassembly of section .text:

00000000 <__vectors>:
   0:	93 c0       	rjmp	.+294    	; 0x128 <__ctors_end>
   2:	ad c0       	rjmp	.+346    	; 0x15e <__bad_interrupt>
   4:	ac c0       	rjmp	.+344    	; 0x15e <__bad_interrupt>
   6:	21 c4       	rjmp	.+2114   	; 0x84a <__vector_3>
   8:	aa c0       	rjmp	.+340    	; 0x15e <__bad_interrupt>
   a:	a9 c0       	rjmp	.+338    	; 0x15e <__bad_interrupt>
   c:	a8 c0       	rjmp	.+336    	; 0x15e <__bad_interrupt>
   e:	a7 c0       	rjmp	.+334    	; 0x15e <__bad_interrupt>
  10:	a6 c0       	rjmp	.+332    	; 0x15e <__bad_interrupt>
  12:	a5 c0       	rjmp	.+330    	; 0x15e <__bad_interrupt>
  14:	a4 c0       	rjmp	.+328    	; 0x15e <__bad_interrupt>
  16:	a3 c0       	rjmp	.+326    	; 0x15e <__bad_interrupt>
  18:	51 c1       	rjmp	.+674    	; 0x2bc <__vector_12>
  1a:	a1 c0       	rjmp	.+322    	; 0x15e <__bad_interrupt>
  1c:	a0 c0       	rjmp	.+320    	; 0x15e <__bad_interrupt>
  1e:	9f c0       	rjmp	.+318    	; 0x15e <__bad_interrupt>
  20:	9e c0       	rjmp	.+316    	; 0x15e <__bad_interrupt>
  22:	9d c0       	rjmp	.+314    	; 0x15e <__bad_interrupt>
  24:	9c c0       	rjmp	.+312    	; 0x15e <__bad_interrupt>
  26:	9b c0       	rjmp	.+310    	; 0x15e <__bad_interrupt>

00000028 <__trampolines_end>:
  28:	ff 38       	cpi	r31, 0x8F	; 143
  2a:	28 37       	cpi	r18, 0x78	; 120
  2c:	18 ff       	.word	0xff18	; ????
  2e:	27 34       	cpi	r18, 0x47	; 71
  30:	08 39       	cpi	r16, 0x98	; 152
  32:	ff ff       	.word	0xffff	; ????
  34:	17 ff       	sbrs	r17, 7
  36:	24 0d       	add	r18, r4
  38:	78 ff       	.word	0xff78	; ????
  3a:	29 36       	cpi	r18, 0x69	; 105
  3c:	ff ff       	.word	0xffff	; ????
  3e:	ff 35       	cpi	r31, 0x5F	; 95
  40:	07 ff       	sbrs	r16, 7
  42:	ff ff       	.word	0xffff	; ????
  44:	14 13       	cpse	r17, r20
  46:	7d 12       	cpse	r7, r29
  48:	68 69       	ori	r22, 0x98	; 152
  4a:	ff ff       	.word	0xffff	; ????
  4c:	19 6a       	ori	r17, 0xA9	; 169
  4e:	26 ff       	sbrs	r18, 6
  50:	ff 3a       	cpi	r31, 0xAF	; 175
  52:	ff ff       	.word	0xffff	; ????
  54:	ff ff       	.word	0xffff	; ????
  56:	25 0e       	add	r2, r21
  58:	77 76       	andi	r23, 0x67	; 103
  5a:	ff ff       	.word	0xffff	; ????
  5c:	ff 6b       	ori	r31, 0xBF	; 191
  5e:	ff ff       	.word	0xffff	; ????
  60:	04 ff       	sbrs	r16, 4
  62:	03 ff       	sbrs	r16, 3
  64:	6d 6c       	ori	r22, 0xCD	; 205
  66:	02 01       	movw	r0, r4
  68:	58 ff       	.word	0xff58	; ????
  6a:	59 ff       	.word	0xff59	; ????
  6c:	ff ff       	.word	0xffff	; ????
  6e:	ff 33       	cpi	r31, 0x3F	; 63
  70:	09 0a       	sbc	r0, r25
  72:	5a ff       	.word	0xff5a	; ????
  74:	16 0b       	sbc	r17, r22
  76:	ff 0c       	add	r15, r15
  78:	ff ff       	.word	0xffff	; ????
  7a:	2a 2b       	or	r18, r26
  7c:	ff ff       	.word	0xffff	; ????
  7e:	ff ff       	.word	0xffff	; ????
  80:	ff ff       	.word	0xffff	; ????
  82:	ff ff       	.word	0xffff	; ????
  84:	15 ff       	sbrs	r17, 5
  86:	7e 7f       	andi	r23, 0xFE	; 254
  88:	67 ff       	sbrs	r22, 7
  8a:	66 ff       	sbrs	r22, 6
  8c:	ff ff       	.word	0xffff	; ????
  8e:	ff ff       	.word	0xffff	; ????
  90:	ff ff       	.word	0xffff	; ????
  92:	5b ff       	.word	0xff5b	; ????
  94:	ff ff       	.word	0xffff	; ????
  96:	ff ff       	.word	0xffff	; ????
  98:	74 75       	andi	r23, 0x54	; 84
  9a:	ff ff       	.word	0xffff	; ????
  9c:	73 ff       	sbrs	r23, 3
  9e:	ff ff       	.word	0xffff	; ????
  a0:	5d 5e       	subi	r21, 0xED	; 237
  a2:	5c ff       	.word	0xff5c	; ????
  a4:	72 5f       	subi	r23, 0xF2	; 242
  a6:	71 00       	.word	0x0071	; ????
  a8:	48 47       	sbci	r20, 0x78	; 120
  aa:	ff 44       	sbci	r31, 0x4F	; 79
  ac:	49 ff       	.word	0xff49	; ????
  ae:	ff 1d       	adc	r31, r15
  b0:	ff 46       	sbci	r31, 0x6F	; 111
  b2:	ff 45       	sbci	r31, 0x5F	; 95
  b4:	ff ff       	.word	0xffff	; ????
  b6:	23 22       	and	r2, r19
  b8:	79 ff       	.word	0xff79	; ????
  ba:	7a ff       	.word	0xff7a	; ????
  bc:	4a ff       	.word	0xff4a	; ????
  be:	ff 1e       	adc	r15, r31
  c0:	06 ff       	sbrs	r16, 6
  c2:	7b ff       	.word	0xff7b	; ????
  c4:	ff ff       	.word	0xffff	; ????
  c6:	7c 11       	cpse	r23, r12
  c8:	ff ff       	.word	0xffff	; ????
  ca:	ff 43       	sbci	r31, 0x3F	; 63
  cc:	1a ff       	.word	0xff1a	; ????
  ce:	1b 1c       	adc	r1, r11
  d0:	ff 3b       	cpi	r31, 0xBF	; 191
  d2:	ff ff       	.word	0xffff	; ????
  d4:	ff ff       	.word	0xffff	; ????
  d6:	ff 0f       	add	r31, r31
  d8:	ff ff       	.word	0xffff	; ????
  da:	ff ff       	.word	0xffff	; ????
  dc:	ff ff       	.word	0xffff	; ????
  de:	ff ff       	.word	0xffff	; ????
  e0:	05 ff       	sbrs	r16, 5
  e2:	ff ff       	.word	0xffff	; ????
  e4:	6e ff       	.word	0xff6e	; ????
  e6:	6f 10       	cpse	r6, r15
  e8:	57 54       	subi	r21, 0x47	; 71
  ea:	ff 2d       	mov	r31, r15
  ec:	56 55       	subi	r21, 0x56	; 86
  ee:	ff 32       	cpi	r31, 0x2F	; 47
  f0:	ff ff       	.word	0xffff	; ????
  f2:	ff 2e       	mov	r15, r31
  f4:	ff ff       	.word	0xffff	; ????
  f6:	ff 21       	and	r31, r15
  f8:	ff 53       	subi	r31, 0x3F	; 63
  fa:	ff 2c       	mov	r15, r15
  fc:	4b ff       	.word	0xff4b	; ????
  fe:	ff 1f       	adc	r31, r31
 100:	ff ff       	.word	0xffff	; ????
 102:	ff ff       	.word	0xffff	; ????
 104:	ff ff       	.word	0xffff	; ????
 106:	ff 20       	and	r15, r15
 108:	64 3d       	cpi	r22, 0xD4	; 212
 10a:	65 42       	sbci	r22, 0x25	; 37
 10c:	ff 3e       	cpi	r31, 0xEF	; 239
 10e:	ff 31       	cpi	r31, 0x1F	; 31
 110:	63 3c       	cpi	r22, 0xC3	; 195
 112:	ff 2f       	mov	r31, r31
 114:	ff ff       	.word	0xffff	; ????
 116:	ff 30       	cpi	r31, 0x0F	; 15
 118:	4d 52       	subi	r20, 0x2D	; 45
 11a:	4e 41       	sbci	r20, 0x1E	; 30
 11c:	4c 3f       	cpi	r20, 0xFC	; 252
 11e:	ff 40       	sbci	r31, 0x0F	; 15
 120:	62 51       	subi	r22, 0x12	; 18
 122:	4f 50       	subi	r20, 0x0F	; 15
 124:	61 60       	ori	r22, 0x01	; 1
 126:	70 ff       	sbrs	r23, 0

00000128 <__ctors_end>:
 128:	11 24       	eor	r1, r1
 12a:	1f be       	out	0x3f, r1	; 63
 12c:	cf ef       	ldi	r28, 0xFF	; 255
 12e:	d2 e0       	ldi	r29, 0x02	; 2
 130:	de bf       	out	0x3e, r29	; 62
 132:	cd bf       	out	0x3d, r28	; 61

00000134 <__do_copy_data>:
 134:	11 e0       	ldi	r17, 0x01	; 1
 136:	a0 e0       	ldi	r26, 0x00	; 0
 138:	b1 e0       	ldi	r27, 0x01	; 1
 13a:	ee ec       	ldi	r30, 0xCE	; 206
 13c:	f9 e0       	ldi	r31, 0x09	; 9
 13e:	02 c0       	rjmp	.+4      	; 0x144 <__do_copy_data+0x10>
 140:	05 90       	lpm	r0, Z+
 142:	0d 92       	st	X+, r0
 144:	ae 31       	cpi	r26, 0x1E	; 30
 146:	b1 07       	cpc	r27, r17
 148:	d9 f7       	brne	.-10     	; 0x140 <__do_copy_data+0xc>

0000014a <__do_clear_bss>:
 14a:	21 e0       	ldi	r18, 0x01	; 1
 14c:	ae e1       	ldi	r26, 0x1E	; 30
 14e:	b1 e0       	ldi	r27, 0x01	; 1
 150:	01 c0       	rjmp	.+2      	; 0x154 <.do_clear_bss_start>

00000152 <.do_clear_bss_loop>:
 152:	1d 92       	st	X+, r1

00000154 <.do_clear_bss_start>:
 154:	a7 3e       	cpi	r26, 0xE7	; 231
 156:	b2 07       	cpc	r27, r18
 158:	e1 f7       	brne	.-8      	; 0x152 <.do_clear_bss_loop>
 15a:	ff d2       	rcall	.+1534   	; 0x75a <main>
 15c:	36 c4       	rjmp	.+2156   	; 0x9ca <_exit>

0000015e <__bad_interrupt>:
 15e:	50 cf       	rjmp	.-352    	; 0x0 <__vectors>

00000160 <ACEInit>:
 160:	cf 92       	push	r12
 162:	df 92       	push	r13
 164:	ef 92       	push	r14
 166:	ff 92       	push	r15
 168:	0f 93       	push	r16
 16a:	1f 93       	push	r17
 16c:	cf 93       	push	r28
 16e:	df 93       	push	r29
 170:	84 b1       	in	r24, 0x04	; 4
 172:	8c 7f       	andi	r24, 0xFC	; 252
 174:	84 b9       	out	0x04, r24	; 4
 176:	87 b1       	in	r24, 0x07	; 7
 178:	88 77       	andi	r24, 0x78	; 120
 17a:	87 b9       	out	0x07, r24	; 7
 17c:	88 e0       	ldi	r24, 0x08	; 8
 17e:	8a b9       	out	0x0a, r24	; 10
 180:	5b 9a       	sbi	0x0b, 3	; 11
 182:	8d e0       	ldi	r24, 0x0D	; 13
 184:	85 bd       	out	0x25, r24	; 37
 186:	8e e4       	ldi	r24, 0x4E	; 78
 188:	87 bd       	out	0x27, r24	; 39
 18a:	82 e0       	ldi	r24, 0x02	; 2
 18c:	80 93 6e 00 	sts	0x006E, r24	; 0x80006e <__TEXT_REGION_LENGTH__+0x7fe06e>
 190:	16 bc       	out	0x26, r1	; 38
 192:	5b 98       	cbi	0x0b, 3	; 11
 194:	00 00       	nop
 196:	00 00       	nop
 198:	00 00       	nop
 19a:	46 b1       	in	r20, 0x06	; 6
 19c:	96 b1       	in	r25, 0x06	; 6
 19e:	c6 b0       	in	r12, 0x06	; 6
 1a0:	d6 b0       	in	r13, 0x06	; 6
 1a2:	39 b1       	in	r19, 0x09	; 9
 1a4:	29 b1       	in	r18, 0x09	; 9
 1a6:	83 b1       	in	r24, 0x03	; 3
 1a8:	f3 b1       	in	r31, 0x03	; 3
 1aa:	04 2e       	mov	r0, r20
 1ac:	00 0c       	add	r0, r0
 1ae:	55 0b       	sbc	r21, r21
 1b0:	40 95       	com	r20
 1b2:	50 95       	com	r21
 1b4:	44 27       	eor	r20, r20
 1b6:	55 0f       	add	r21, r21
 1b8:	44 1f       	adc	r20, r20
 1ba:	55 27       	eor	r21, r21
 1bc:	56 95       	lsr	r21
 1be:	54 2f       	mov	r21, r20
 1c0:	44 27       	eor	r20, r20
 1c2:	57 95       	ror	r21
 1c4:	47 95       	ror	r20
 1c6:	e9 2f       	mov	r30, r25
 1c8:	e1 70       	andi	r30, 0x01	; 1
 1ca:	91 e0       	ldi	r25, 0x01	; 1
 1cc:	ee 2e       	mov	r14, r30
 1ce:	e9 26       	eor	r14, r25
 1d0:	f1 2c       	mov	r15, r1
 1d2:	00 24       	eor	r0, r0
 1d4:	f6 94       	lsr	r15
 1d6:	e7 94       	ror	r14
 1d8:	07 94       	ror	r0
 1da:	f6 94       	lsr	r15
 1dc:	e7 94       	ror	r14
 1de:	07 94       	ror	r0
 1e0:	fe 2c       	mov	r15, r14
 1e2:	e0 2c       	mov	r14, r0
 1e4:	e4 2a       	or	r14, r20
 1e6:	f5 2a       	or	r15, r21
 1e8:	f6 95       	lsr	r31
 1ea:	f9 27       	eor	r31, r25
 1ec:	0f 2f       	mov	r16, r31
 1ee:	01 70       	andi	r16, 0x01	; 1
 1f0:	10 e0       	ldi	r17, 0x00	; 0
 1f2:	f7 01       	movw	r30, r14
 1f4:	e0 2b       	or	r30, r16
 1f6:	f1 2b       	or	r31, r17
 1f8:	5c 2d       	mov	r21, r12
 1fa:	56 95       	lsr	r21
 1fc:	59 27       	eor	r21, r25
 1fe:	51 70       	andi	r21, 0x01	; 1
 200:	c5 2f       	mov	r28, r21
 202:	40 e0       	ldi	r20, 0x00	; 0
 204:	d4 2f       	mov	r29, r20
 206:	cc 0f       	add	r28, r28
 208:	dd 1f       	adc	r29, r29
 20a:	c2 95       	swap	r28
 20c:	d2 95       	swap	r29
 20e:	d0 7f       	andi	r29, 0xF0	; 240
 210:	dc 27       	eor	r29, r28
 212:	c0 7f       	andi	r28, 0xF0	; 240
 214:	dc 27       	eor	r29, r28
 216:	ec 2b       	or	r30, r28
 218:	fd 2b       	or	r31, r29
 21a:	4d 2d       	mov	r20, r13
 21c:	46 95       	lsr	r20
 21e:	46 95       	lsr	r20
 220:	49 27       	eor	r20, r25
 222:	a4 2f       	mov	r26, r20
 224:	a1 70       	andi	r26, 0x01	; 1
 226:	b0 e0       	ldi	r27, 0x00	; 0
 228:	a2 95       	swap	r26
 22a:	b2 95       	swap	r27
 22c:	b0 7f       	andi	r27, 0xF0	; 240
 22e:	ba 27       	eor	r27, r26
 230:	a0 7f       	andi	r26, 0xF0	; 240
 232:	ba 27       	eor	r27, r26
 234:	ea 2b       	or	r30, r26
 236:	fb 2b       	or	r31, r27
 238:	32 95       	swap	r19
 23a:	36 95       	lsr	r19
 23c:	36 95       	lsr	r19
 23e:	33 70       	andi	r19, 0x03	; 3
 240:	39 27       	eor	r19, r25
 242:	63 2f       	mov	r22, r19
 244:	61 70       	andi	r22, 0x01	; 1
 246:	70 e0       	ldi	r23, 0x00	; 0
 248:	66 0f       	add	r22, r22
 24a:	77 1f       	adc	r23, r23
 24c:	66 0f       	add	r22, r22
 24e:	77 1f       	adc	r23, r23
 250:	66 0f       	add	r22, r22
 252:	77 1f       	adc	r23, r23
 254:	e6 2b       	or	r30, r22
 256:	f7 2b       	or	r31, r23
 258:	02 2e       	mov	r0, r18
 25a:	00 0c       	add	r0, r0
 25c:	33 0b       	sbc	r19, r19
 25e:	20 95       	com	r18
 260:	30 95       	com	r19
 262:	22 27       	eor	r18, r18
 264:	33 0f       	add	r19, r19
 266:	22 1f       	adc	r18, r18
 268:	33 27       	eor	r19, r19
 26a:	22 0f       	add	r18, r18
 26c:	33 1f       	adc	r19, r19
 26e:	22 0f       	add	r18, r18
 270:	33 1f       	adc	r19, r19
 272:	e2 2b       	or	r30, r18
 274:	f3 2b       	or	r31, r19
 276:	81 70       	andi	r24, 0x01	; 1
 278:	98 27       	eor	r25, r24
 27a:	89 2f       	mov	r24, r25
 27c:	90 e0       	ldi	r25, 0x00	; 0
 27e:	88 0f       	add	r24, r24
 280:	99 1f       	adc	r25, r25
 282:	e8 2b       	or	r30, r24
 284:	f9 2b       	or	r31, r25
 286:	e8 5d       	subi	r30, 0xD8	; 216
 288:	ff 4f       	sbci	r31, 0xFF	; 255
 28a:	84 91       	lpm	r24, Z
 28c:	5b 9a       	sbi	0x0b, 3	; 11
 28e:	80 93 21 01 	sts	0x0121, r24	; 0x800121 <ace_val_old>
 292:	df 91       	pop	r29
 294:	cf 91       	pop	r28
 296:	1f 91       	pop	r17
 298:	0f 91       	pop	r16
 29a:	ff 90       	pop	r15
 29c:	ef 90       	pop	r14
 29e:	df 90       	pop	r13
 2a0:	cf 90       	pop	r12
 2a2:	08 95       	ret

000002a4 <enableTimer>:
 2a4:	ee e6       	ldi	r30, 0x6E	; 110
 2a6:	f0 e0       	ldi	r31, 0x00	; 0
 2a8:	80 81       	ld	r24, Z
 2aa:	82 60       	ori	r24, 0x02	; 2
 2ac:	80 83       	st	Z, r24
 2ae:	08 95       	ret

000002b0 <disableTimer>:
 2b0:	ee e6       	ldi	r30, 0x6E	; 110
 2b2:	f0 e0       	ldi	r31, 0x00	; 0
 2b4:	80 81       	ld	r24, Z
 2b6:	8d 7f       	andi	r24, 0xFD	; 253
 2b8:	80 83       	st	Z, r24
 2ba:	08 95       	ret

000002bc <__vector_12>:
 2bc:	1f 92       	push	r1
 2be:	0f 92       	push	r0
 2c0:	0f b6       	in	r0, 0x3f	; 63
 2c2:	0f 92       	push	r0
 2c4:	11 24       	eor	r1, r1
 2c6:	cf 92       	push	r12
 2c8:	df 92       	push	r13
 2ca:	ef 92       	push	r14
 2cc:	ff 92       	push	r15
 2ce:	0f 93       	push	r16
 2d0:	1f 93       	push	r17
 2d2:	2f 93       	push	r18
 2d4:	3f 93       	push	r19
 2d6:	4f 93       	push	r20
 2d8:	5f 93       	push	r21
 2da:	6f 93       	push	r22
 2dc:	7f 93       	push	r23
 2de:	8f 93       	push	r24
 2e0:	9f 93       	push	r25
 2e2:	af 93       	push	r26
 2e4:	bf 93       	push	r27
 2e6:	cf 93       	push	r28
 2e8:	df 93       	push	r29
 2ea:	ef 93       	push	r30
 2ec:	ff 93       	push	r31
 2ee:	80 91 1f 01 	lds	r24, 0x011F	; 0x80011f <cnt>
 2f2:	90 91 20 01 	lds	r25, 0x0120	; 0x800120 <cnt+0x1>
 2f6:	00 97       	sbiw	r24, 0x00	; 0
 2f8:	e1 f0       	breq	.+56     	; 0x332 <__stack+0x33>
 2fa:	01 97       	sbiw	r24, 0x01	; 1
 2fc:	09 f4       	brne	.+2      	; 0x300 <__stack+0x1>
 2fe:	d0 c0       	rjmp	.+416    	; 0x4a0 <__LOCK_REGION_LENGTH__+0xa0>
 300:	ff 91       	pop	r31
 302:	ef 91       	pop	r30
 304:	df 91       	pop	r29
 306:	cf 91       	pop	r28
 308:	bf 91       	pop	r27
 30a:	af 91       	pop	r26
 30c:	9f 91       	pop	r25
 30e:	8f 91       	pop	r24
 310:	7f 91       	pop	r23
 312:	6f 91       	pop	r22
 314:	5f 91       	pop	r21
 316:	4f 91       	pop	r20
 318:	3f 91       	pop	r19
 31a:	2f 91       	pop	r18
 31c:	1f 91       	pop	r17
 31e:	0f 91       	pop	r16
 320:	ff 90       	pop	r15
 322:	ef 90       	pop	r14
 324:	df 90       	pop	r13
 326:	cf 90       	pop	r12
 328:	0f 90       	pop	r0
 32a:	0f be       	out	0x3f, r0	; 63
 32c:	0f 90       	pop	r0
 32e:	1f 90       	pop	r1
 330:	18 95       	reti
 332:	5b 98       	cbi	0x0b, 3	; 11
 334:	00 00       	nop
 336:	00 00       	nop
 338:	00 00       	nop
 33a:	46 b1       	in	r20, 0x06	; 6
 33c:	96 b1       	in	r25, 0x06	; 6
 33e:	c6 b0       	in	r12, 0x06	; 6
 340:	d6 b0       	in	r13, 0x06	; 6
 342:	39 b1       	in	r19, 0x09	; 9
 344:	29 b1       	in	r18, 0x09	; 9
 346:	83 b1       	in	r24, 0x03	; 3
 348:	f3 b1       	in	r31, 0x03	; 3
 34a:	04 2e       	mov	r0, r20
 34c:	00 0c       	add	r0, r0
 34e:	55 0b       	sbc	r21, r21
 350:	40 95       	com	r20
 352:	50 95       	com	r21
 354:	44 27       	eor	r20, r20
 356:	55 0f       	add	r21, r21
 358:	44 1f       	adc	r20, r20
 35a:	55 27       	eor	r21, r21
 35c:	56 95       	lsr	r21
 35e:	54 2f       	mov	r21, r20
 360:	44 27       	eor	r20, r20
 362:	57 95       	ror	r21
 364:	47 95       	ror	r20
 366:	e9 2f       	mov	r30, r25
 368:	e1 70       	andi	r30, 0x01	; 1
 36a:	91 e0       	ldi	r25, 0x01	; 1
 36c:	ee 2e       	mov	r14, r30
 36e:	e9 26       	eor	r14, r25
 370:	f1 2c       	mov	r15, r1
 372:	00 24       	eor	r0, r0
 374:	f6 94       	lsr	r15
 376:	e7 94       	ror	r14
 378:	07 94       	ror	r0
 37a:	f6 94       	lsr	r15
 37c:	e7 94       	ror	r14
 37e:	07 94       	ror	r0
 380:	fe 2c       	mov	r15, r14
 382:	e0 2c       	mov	r14, r0
 384:	e4 2a       	or	r14, r20
 386:	f5 2a       	or	r15, r21
 388:	f6 95       	lsr	r31
 38a:	f9 27       	eor	r31, r25
 38c:	0f 2f       	mov	r16, r31
 38e:	01 70       	andi	r16, 0x01	; 1
 390:	10 e0       	ldi	r17, 0x00	; 0
 392:	f7 01       	movw	r30, r14
 394:	e0 2b       	or	r30, r16
 396:	f1 2b       	or	r31, r17
 398:	5c 2d       	mov	r21, r12
 39a:	56 95       	lsr	r21
 39c:	59 27       	eor	r21, r25
 39e:	51 70       	andi	r21, 0x01	; 1
 3a0:	c5 2f       	mov	r28, r21
 3a2:	40 e0       	ldi	r20, 0x00	; 0
 3a4:	d4 2f       	mov	r29, r20
 3a6:	cc 0f       	add	r28, r28
 3a8:	dd 1f       	adc	r29, r29
 3aa:	c2 95       	swap	r28
 3ac:	d2 95       	swap	r29
 3ae:	d0 7f       	andi	r29, 0xF0	; 240
 3b0:	dc 27       	eor	r29, r28
 3b2:	c0 7f       	andi	r28, 0xF0	; 240
 3b4:	dc 27       	eor	r29, r28
 3b6:	ec 2b       	or	r30, r28
 3b8:	fd 2b       	or	r31, r29
 3ba:	4d 2d       	mov	r20, r13
 3bc:	46 95       	lsr	r20
 3be:	46 95       	lsr	r20
 3c0:	49 27       	eor	r20, r25
 3c2:	a4 2f       	mov	r26, r20
 3c4:	a1 70       	andi	r26, 0x01	; 1
 3c6:	b0 e0       	ldi	r27, 0x00	; 0
 3c8:	a2 95       	swap	r26
 3ca:	b2 95       	swap	r27
 3cc:	b0 7f       	andi	r27, 0xF0	; 240
 3ce:	ba 27       	eor	r27, r26
 3d0:	a0 7f       	andi	r26, 0xF0	; 240
 3d2:	ba 27       	eor	r27, r26
 3d4:	ea 2b       	or	r30, r26
 3d6:	fb 2b       	or	r31, r27
 3d8:	32 95       	swap	r19
 3da:	36 95       	lsr	r19
 3dc:	36 95       	lsr	r19
 3de:	33 70       	andi	r19, 0x03	; 3
 3e0:	39 27       	eor	r19, r25
 3e2:	63 2f       	mov	r22, r19
 3e4:	61 70       	andi	r22, 0x01	; 1
 3e6:	70 e0       	ldi	r23, 0x00	; 0
 3e8:	66 0f       	add	r22, r22
 3ea:	77 1f       	adc	r23, r23
 3ec:	66 0f       	add	r22, r22
 3ee:	77 1f       	adc	r23, r23
 3f0:	66 0f       	add	r22, r22
 3f2:	77 1f       	adc	r23, r23
 3f4:	e6 2b       	or	r30, r22
 3f6:	f7 2b       	or	r31, r23
 3f8:	02 2e       	mov	r0, r18
 3fa:	00 0c       	add	r0, r0
 3fc:	33 0b       	sbc	r19, r19
 3fe:	20 95       	com	r18
 400:	30 95       	com	r19
 402:	22 27       	eor	r18, r18
 404:	33 0f       	add	r19, r19
 406:	22 1f       	adc	r18, r18
 408:	33 27       	eor	r19, r19
 40a:	22 0f       	add	r18, r18
 40c:	33 1f       	adc	r19, r19
 40e:	22 0f       	add	r18, r18
 410:	33 1f       	adc	r19, r19
 412:	e2 2b       	or	r30, r18
 414:	f3 2b       	or	r31, r19
 416:	81 70       	andi	r24, 0x01	; 1
 418:	98 27       	eor	r25, r24
 41a:	89 2f       	mov	r24, r25
 41c:	90 e0       	ldi	r25, 0x00	; 0
 41e:	88 0f       	add	r24, r24
 420:	99 1f       	adc	r25, r25
 422:	e8 2b       	or	r30, r24
 424:	f9 2b       	or	r31, r25
 426:	e8 5d       	subi	r30, 0xD8	; 216
 428:	ff 4f       	sbci	r31, 0xFF	; 255
 42a:	24 91       	lpm	r18, Z
 42c:	5b 9a       	sbi	0x0b, 3	; 11
 42e:	20 93 22 01 	sts	0x0122, r18	; 0x800122 <ace_val_new>
 432:	30 91 21 01 	lds	r19, 0x0121	; 0x800121 <ace_val_old>
 436:	36 37       	cpi	r19, 0x76	; 118
 438:	18 f1       	brcs	.+70     	; 0x480 <__LOCK_REGION_LENGTH__+0x80>
 43a:	2a 30       	cpi	r18, 0x0A	; 10
 43c:	60 f5       	brcc	.+88     	; 0x496 <__LOCK_REGION_LENGTH__+0x96>
 43e:	82 2f       	mov	r24, r18
 440:	90 e0       	ldi	r25, 0x00	; 0
 442:	83 1b       	sub	r24, r19
 444:	91 09       	sbc	r25, r1
 446:	80 58       	subi	r24, 0x80	; 128
 448:	9f 4f       	sbci	r25, 0xFF	; 255
 44a:	40 91 23 01 	lds	r20, 0x0123	; 0x800123 <ace_val>
 44e:	50 91 24 01 	lds	r21, 0x0124	; 0x800124 <ace_val+0x1>
 452:	48 0f       	add	r20, r24
 454:	59 1f       	adc	r21, r25
 456:	50 93 24 01 	sts	0x0124, r21	; 0x800124 <ace_val+0x1>
 45a:	40 93 23 01 	sts	0x0123, r20	; 0x800123 <ace_val>
 45e:	20 93 21 01 	sts	0x0121, r18	; 0x800121 <ace_val_old>
 462:	89 2b       	or	r24, r25
 464:	19 f0       	breq	.+6      	; 0x46c <__LOCK_REGION_LENGTH__+0x6c>
 466:	81 e0       	ldi	r24, 0x01	; 1
 468:	80 93 1e 01 	sts	0x011E, r24	; 0x80011e <__data_end>
 46c:	80 91 1f 01 	lds	r24, 0x011F	; 0x80011f <cnt>
 470:	90 91 20 01 	lds	r25, 0x0120	; 0x800120 <cnt+0x1>
 474:	01 96       	adiw	r24, 0x01	; 1
 476:	90 93 20 01 	sts	0x0120, r25	; 0x800120 <cnt+0x1>
 47a:	80 93 1f 01 	sts	0x011F, r24	; 0x80011f <cnt>
 47e:	40 cf       	rjmp	.-384    	; 0x300 <__stack+0x1>
 480:	3f 30       	cpi	r19, 0x0F	; 15
 482:	48 f4       	brcc	.+18     	; 0x496 <__LOCK_REGION_LENGTH__+0x96>
 484:	2f 36       	cpi	r18, 0x6F	; 111
 486:	38 f0       	brcs	.+14     	; 0x496 <__LOCK_REGION_LENGTH__+0x96>
 488:	82 2f       	mov	r24, r18
 48a:	90 e0       	ldi	r25, 0x00	; 0
 48c:	83 1b       	sub	r24, r19
 48e:	91 09       	sbc	r25, r1
 490:	80 58       	subi	r24, 0x80	; 128
 492:	91 09       	sbc	r25, r1
 494:	da cf       	rjmp	.-76     	; 0x44a <__LOCK_REGION_LENGTH__+0x4a>
 496:	82 2f       	mov	r24, r18
 498:	90 e0       	ldi	r25, 0x00	; 0
 49a:	83 1b       	sub	r24, r19
 49c:	91 09       	sbc	r25, r1
 49e:	d5 cf       	rjmp	.-86     	; 0x44a <__LOCK_REGION_LENGTH__+0x4a>
 4a0:	80 91 23 01 	lds	r24, 0x0123	; 0x800123 <ace_val>
 4a4:	97 d0       	rcall	.+302    	; 0x5d4 <setLEDRgb>
 4a6:	10 92 20 01 	sts	0x0120, r1	; 0x800120 <cnt+0x1>
 4aa:	10 92 1f 01 	sts	0x011F, r1	; 0x80011f <cnt>
 4ae:	28 cf       	rjmp	.-432    	; 0x300 <__stack+0x1>

000004b0 <I2CInit>:
 4b0:	82 e0       	ldi	r24, 0x02	; 2
 4b2:	80 93 b8 00 	sts	0x00B8, r24	; 0x8000b8 <__TEXT_REGION_LENGTH__+0x7fe0b8>
 4b6:	e9 eb       	ldi	r30, 0xB9	; 185
 4b8:	f0 e0       	ldi	r31, 0x00	; 0
 4ba:	80 81       	ld	r24, Z
 4bc:	80 83       	st	Z, r24
 4be:	08 95       	ret

000004c0 <I2CStart>:
 4c0:	90 91 bc 00 	lds	r25, 0x00BC	; 0x8000bc <__TEXT_REGION_LENGTH__+0x7fe0bc>
 4c4:	94 6a       	ori	r25, 0xA4	; 164
 4c6:	90 93 bc 00 	sts	0x00BC, r25	; 0x8000bc <__TEXT_REGION_LENGTH__+0x7fe0bc>
 4ca:	90 91 bc 00 	lds	r25, 0x00BC	; 0x8000bc <__TEXT_REGION_LENGTH__+0x7fe0bc>
 4ce:	97 ff       	sbrs	r25, 7
 4d0:	fc cf       	rjmp	.-8      	; 0x4ca <I2CStart+0xa>
 4d2:	90 91 b9 00 	lds	r25, 0x00B9	; 0x8000b9 <__TEXT_REGION_LENGTH__+0x7fe0b9>
 4d6:	98 7f       	andi	r25, 0xF8	; 248
 4d8:	98 30       	cpi	r25, 0x08	; 8
 4da:	39 f0       	breq	.+14     	; 0x4ea <I2CStart+0x2a>
 4dc:	90 91 b9 00 	lds	r25, 0x00B9	; 0x8000b9 <__TEXT_REGION_LENGTH__+0x7fe0b9>
 4e0:	98 7f       	andi	r25, 0xF8	; 248
 4e2:	90 31       	cpi	r25, 0x10	; 16
 4e4:	11 f0       	breq	.+4      	; 0x4ea <I2CStart+0x2a>
 4e6:	81 e0       	ldi	r24, 0x01	; 1
 4e8:	08 95       	ret
 4ea:	88 0f       	add	r24, r24
 4ec:	68 2b       	or	r22, r24
 4ee:	60 93 bb 00 	sts	0x00BB, r22	; 0x8000bb <__TEXT_REGION_LENGTH__+0x7fe0bb>
 4f2:	84 e8       	ldi	r24, 0x84	; 132
 4f4:	80 93 bc 00 	sts	0x00BC, r24	; 0x8000bc <__TEXT_REGION_LENGTH__+0x7fe0bc>
 4f8:	80 91 bc 00 	lds	r24, 0x00BC	; 0x8000bc <__TEXT_REGION_LENGTH__+0x7fe0bc>
 4fc:	87 ff       	sbrs	r24, 7
 4fe:	fc cf       	rjmp	.-8      	; 0x4f8 <I2CStart+0x38>
 500:	80 91 b9 00 	lds	r24, 0x00B9	; 0x8000b9 <__TEXT_REGION_LENGTH__+0x7fe0b9>
 504:	88 7f       	andi	r24, 0xF8	; 248
 506:	88 31       	cpi	r24, 0x18	; 24
 508:	29 f0       	breq	.+10     	; 0x514 <I2CStart+0x54>
 50a:	80 91 b9 00 	lds	r24, 0x00B9	; 0x8000b9 <__TEXT_REGION_LENGTH__+0x7fe0b9>
 50e:	88 7f       	andi	r24, 0xF8	; 248
 510:	80 34       	cpi	r24, 0x40	; 64
 512:	49 f7       	brne	.-46     	; 0x4e6 <I2CStart+0x26>
 514:	80 e0       	ldi	r24, 0x00	; 0
 516:	08 95       	ret

00000518 <I2CStop>:
 518:	84 e9       	ldi	r24, 0x94	; 148
 51a:	80 93 bc 00 	sts	0x00BC, r24	; 0x8000bc <__TEXT_REGION_LENGTH__+0x7fe0bc>
 51e:	08 95       	ret

00000520 <I2CWrite>:
 520:	80 93 bb 00 	sts	0x00BB, r24	; 0x8000bb <__TEXT_REGION_LENGTH__+0x7fe0bb>
 524:	84 e8       	ldi	r24, 0x84	; 132
 526:	80 93 bc 00 	sts	0x00BC, r24	; 0x8000bc <__TEXT_REGION_LENGTH__+0x7fe0bc>
 52a:	80 91 bc 00 	lds	r24, 0x00BC	; 0x8000bc <__TEXT_REGION_LENGTH__+0x7fe0bc>
 52e:	87 ff       	sbrs	r24, 7
 530:	fc cf       	rjmp	.-8      	; 0x52a <I2CWrite+0xa>
 532:	90 91 b9 00 	lds	r25, 0x00B9	; 0x8000b9 <__TEXT_REGION_LENGTH__+0x7fe0b9>
 536:	98 7f       	andi	r25, 0xF8	; 248
 538:	81 e0       	ldi	r24, 0x01	; 1
 53a:	98 32       	cpi	r25, 0x28	; 40
 53c:	09 f0       	breq	.+2      	; 0x540 <I2CWrite+0x20>
 53e:	08 95       	ret
 540:	80 e0       	ldi	r24, 0x00	; 0
 542:	08 95       	ret

00000544 <LEDInit>:
 544:	cf 93       	push	r28
 546:	60 e0       	ldi	r22, 0x00	; 0
 548:	84 e3       	ldi	r24, 0x34	; 52
 54a:	ba df       	rcall	.-140    	; 0x4c0 <I2CStart>
 54c:	88 23       	and	r24, r24
 54e:	c1 f1       	breq	.+112    	; 0x5c0 <LEDInit+0x7c>
 550:	60 e0       	ldi	r22, 0x00	; 0
 552:	84 e3       	ldi	r24, 0x34	; 52
 554:	b5 df       	rcall	.-150    	; 0x4c0 <I2CStart>
 556:	88 23       	and	r24, r24
 558:	49 f1       	breq	.+82     	; 0x5ac <LEDInit+0x68>
 55a:	60 e0       	ldi	r22, 0x00	; 0
 55c:	84 e3       	ldi	r24, 0x34	; 52
 55e:	b0 df       	rcall	.-160    	; 0x4c0 <I2CStart>
 560:	88 23       	and	r24, r24
 562:	d1 f0       	breq	.+52     	; 0x598 <LEDInit+0x54>
 564:	c0 e9       	ldi	r28, 0x90	; 144
 566:	03 c0       	rjmp	.+6      	; 0x56e <LEDInit+0x2a>
 568:	cf 5f       	subi	r28, 0xFF	; 255
 56a:	cf 39       	cpi	r28, 0x9F	; 159
 56c:	89 f0       	breq	.+34     	; 0x590 <LEDInit+0x4c>
 56e:	60 e0       	ldi	r22, 0x00	; 0
 570:	84 e3       	ldi	r24, 0x34	; 52
 572:	a6 df       	rcall	.-180    	; 0x4c0 <I2CStart>
 574:	81 11       	cpse	r24, r1
 576:	f8 cf       	rjmp	.-16     	; 0x568 <LEDInit+0x24>
 578:	8c 2f       	mov	r24, r28
 57a:	d2 df       	rcall	.-92     	; 0x520 <I2CWrite>
 57c:	81 11       	cpse	r24, r1
 57e:	f4 cf       	rjmp	.-24     	; 0x568 <LEDInit+0x24>
 580:	8c e3       	ldi	r24, 0x3C	; 60
 582:	ce df       	rcall	.-100    	; 0x520 <I2CWrite>
 584:	81 11       	cpse	r24, r1
 586:	f0 cf       	rjmp	.-32     	; 0x568 <LEDInit+0x24>
 588:	c7 df       	rcall	.-114    	; 0x518 <I2CStop>
 58a:	cf 5f       	subi	r28, 0xFF	; 255
 58c:	cf 39       	cpi	r28, 0x9F	; 159
 58e:	79 f7       	brne	.-34     	; 0x56e <LEDInit+0x2a>
 590:	3b 9a       	sbi	0x07, 3	; 7
 592:	43 9a       	sbi	0x08, 3	; 8
 594:	cf 91       	pop	r28
 596:	08 95       	ret
 598:	81 ea       	ldi	r24, 0xA1	; 161
 59a:	c2 df       	rcall	.-124    	; 0x520 <I2CWrite>
 59c:	81 11       	cpse	r24, r1
 59e:	e2 cf       	rjmp	.-60     	; 0x564 <LEDInit+0x20>
 5a0:	8e e1       	ldi	r24, 0x1E	; 30
 5a2:	be df       	rcall	.-132    	; 0x520 <I2CWrite>
 5a4:	81 11       	cpse	r24, r1
 5a6:	de cf       	rjmp	.-68     	; 0x564 <LEDInit+0x20>
 5a8:	b7 df       	rcall	.-146    	; 0x518 <I2CStop>
 5aa:	dc cf       	rjmp	.-72     	; 0x564 <LEDInit+0x20>
 5ac:	80 ea       	ldi	r24, 0xA0	; 160
 5ae:	b8 df       	rcall	.-144    	; 0x520 <I2CWrite>
 5b0:	81 11       	cpse	r24, r1
 5b2:	d3 cf       	rjmp	.-90     	; 0x55a <LEDInit+0x16>
 5b4:	81 e0       	ldi	r24, 0x01	; 1
 5b6:	b4 df       	rcall	.-152    	; 0x520 <I2CWrite>
 5b8:	81 11       	cpse	r24, r1
 5ba:	cf cf       	rjmp	.-98     	; 0x55a <LEDInit+0x16>
 5bc:	ad df       	rcall	.-166    	; 0x518 <I2CStop>
 5be:	cd cf       	rjmp	.-102    	; 0x55a <LEDInit+0x16>
 5c0:	8f ec       	ldi	r24, 0xCF	; 207
 5c2:	ae df       	rcall	.-164    	; 0x520 <I2CWrite>
 5c4:	81 11       	cpse	r24, r1
 5c6:	c4 cf       	rjmp	.-120    	; 0x550 <LEDInit+0xc>
 5c8:	8e ea       	ldi	r24, 0xAE	; 174
 5ca:	aa df       	rcall	.-172    	; 0x520 <I2CWrite>
 5cc:	81 11       	cpse	r24, r1
 5ce:	c0 cf       	rjmp	.-128    	; 0x550 <LEDInit+0xc>
 5d0:	a3 df       	rcall	.-186    	; 0x518 <I2CStop>
 5d2:	be cf       	rjmp	.-132    	; 0x550 <LEDInit+0xc>

000005d4 <setLEDRgb>:
 5d4:	8f 92       	push	r8
 5d6:	9f 92       	push	r9
 5d8:	af 92       	push	r10
 5da:	bf 92       	push	r11
 5dc:	cf 92       	push	r12
 5de:	df 92       	push	r13
 5e0:	ef 92       	push	r14
 5e2:	ff 92       	push	r15
 5e4:	0f 93       	push	r16
 5e6:	1f 93       	push	r17
 5e8:	cf 93       	push	r28
 5ea:	df 93       	push	r29
 5ec:	00 d0       	rcall	.+0      	; 0x5ee <setLEDRgb+0x1a>
 5ee:	00 d0       	rcall	.+0      	; 0x5f0 <setLEDRgb+0x1c>
 5f0:	cd b7       	in	r28, 0x3d	; 61
 5f2:	de b7       	in	r29, 0x3e	; 62
 5f4:	e8 2e       	mov	r14, r24
 5f6:	f1 2c       	mov	r15, r1
 5f8:	92 ee       	ldi	r25, 0xE2	; 226
 5fa:	98 0f       	add	r25, r24
 5fc:	9a 83       	std	Y+2, r25	; 0x02
 5fe:	8c 53       	subi	r24, 0x3C	; 60
 600:	89 83       	std	Y+1, r24	; 0x01
 602:	00 e0       	ldi	r16, 0x00	; 0
 604:	11 e0       	ldi	r17, 0x01	; 1
 606:	1c 82       	std	Y+4, r1	; 0x04
 608:	1b 82       	std	Y+3, r1	; 0x03
 60a:	c1 2c       	mov	r12, r1
 60c:	57 01       	movw	r10, r14
 60e:	ed e1       	ldi	r30, 0x1D	; 29
 610:	ae 1a       	sub	r10, r30
 612:	b1 08       	sbc	r11, r1
 614:	47 01       	movw	r8, r14
 616:	fb e3       	ldi	r31, 0x3B	; 59
 618:	8f 1a       	sub	r8, r31
 61a:	91 08       	sbc	r9, r1
 61c:	8b 81       	ldd	r24, Y+3	; 0x03
 61e:	9c 81       	ldd	r25, Y+4	; 0x04
 620:	18 c0       	rjmp	.+48     	; 0x652 <setLEDRgb+0x7e>
 622:	9a 81       	ldd	r25, Y+2	; 0x02
 624:	9f 31       	cpi	r25, 0x1F	; 31
 626:	10 f5       	brcc	.+68     	; 0x66c <setLEDRgb+0x98>
 628:	f8 01       	movw	r30, r16
 62a:	d0 80       	ld	r13, Z
 62c:	60 e0       	ldi	r22, 0x00	; 0
 62e:	84 e3       	ldi	r24, 0x34	; 52
 630:	47 df       	rcall	.-370    	; 0x4c0 <I2CStart>
 632:	88 23       	and	r24, r24
 634:	09 f4       	brne	.+2      	; 0x638 <setLEDRgb+0x64>
 636:	86 c0       	rjmp	.+268    	; 0x744 <setLEDRgb+0x170>
 638:	90 e3       	ldi	r25, 0x30	; 48
 63a:	c9 2e       	mov	r12, r25
 63c:	8b 81       	ldd	r24, Y+3	; 0x03
 63e:	9c 81       	ldd	r25, Y+4	; 0x04
 640:	01 96       	adiw	r24, 0x01	; 1
 642:	9c 83       	std	Y+4, r25	; 0x04
 644:	8b 83       	std	Y+3, r24	; 0x03
 646:	0f 5f       	subi	r16, 0xFF	; 255
 648:	1f 4f       	sbci	r17, 0xFF	; 255
 64a:	8e 31       	cpi	r24, 0x1E	; 30
 64c:	91 05       	cpc	r25, r1
 64e:	09 f4       	brne	.+2      	; 0x652 <setLEDRgb+0x7e>
 650:	5c c0       	rjmp	.+184    	; 0x70a <setLEDRgb+0x136>
 652:	e8 16       	cp	r14, r24
 654:	f9 06       	cpc	r15, r25
 656:	2c f0       	brlt	.+10     	; 0x662 <setLEDRgb+0x8e>
 658:	9f e1       	ldi	r25, 0x1F	; 31
 65a:	e9 16       	cp	r14, r25
 65c:	f1 04       	cpc	r15, r1
 65e:	0c f4       	brge	.+2      	; 0x662 <setLEDRgb+0x8e>
 660:	3f c0       	rjmp	.+126    	; 0x6e0 <setLEDRgb+0x10c>
 662:	8b 81       	ldd	r24, Y+3	; 0x03
 664:	9c 81       	ldd	r25, Y+4	; 0x04
 666:	8a 15       	cp	r24, r10
 668:	9b 05       	cpc	r25, r11
 66a:	dc f2       	brlt	.-74     	; 0x622 <setLEDRgb+0x4e>
 66c:	8b 81       	ldd	r24, Y+3	; 0x03
 66e:	9c 81       	ldd	r25, Y+4	; 0x04
 670:	88 15       	cp	r24, r8
 672:	99 05       	cpc	r25, r9
 674:	74 f4       	brge	.+28     	; 0x692 <setLEDRgb+0xbe>
 676:	99 81       	ldd	r25, Y+1	; 0x01
 678:	9f 31       	cpi	r25, 0x1F	; 31
 67a:	58 f4       	brcc	.+22     	; 0x692 <setLEDRgb+0xbe>
 67c:	f8 01       	movw	r30, r16
 67e:	d0 80       	ld	r13, Z
 680:	60 e0       	ldi	r22, 0x00	; 0
 682:	84 e3       	ldi	r24, 0x34	; 52
 684:	1d df       	rcall	.-454    	; 0x4c0 <I2CStart>
 686:	88 23       	and	r24, r24
 688:	09 f4       	brne	.+2      	; 0x68c <setLEDRgb+0xb8>
 68a:	50 c0       	rjmp	.+160    	; 0x72c <setLEDRgb+0x158>
 68c:	8c e0       	ldi	r24, 0x0C	; 12
 68e:	c8 2e       	mov	r12, r24
 690:	d5 cf       	rjmp	.-86     	; 0x63c <setLEDRgb+0x68>
 692:	f8 01       	movw	r30, r16
 694:	d0 80       	ld	r13, Z
 696:	60 e0       	ldi	r22, 0x00	; 0
 698:	84 e3       	ldi	r24, 0x34	; 52
 69a:	12 df       	rcall	.-476    	; 0x4c0 <I2CStart>
 69c:	81 11       	cpse	r24, r1
 69e:	ce cf       	rjmp	.-100    	; 0x63c <setLEDRgb+0x68>
 6a0:	8d 2d       	mov	r24, r13
 6a2:	3e df       	rcall	.-388    	; 0x520 <I2CWrite>
 6a4:	81 11       	cpse	r24, r1
 6a6:	ca cf       	rjmp	.-108    	; 0x63c <setLEDRgb+0x68>
 6a8:	3b df       	rcall	.-394    	; 0x520 <I2CWrite>
 6aa:	8c 2d       	mov	r24, r12
 6ac:	86 95       	lsr	r24
 6ae:	86 95       	lsr	r24
 6b0:	83 70       	andi	r24, 0x03	; 3
 6b2:	98 2f       	mov	r25, r24
 6b4:	99 0f       	add	r25, r25
 6b6:	99 0f       	add	r25, r25
 6b8:	89 0f       	add	r24, r25
 6ba:	98 2f       	mov	r25, r24
 6bc:	92 95       	swap	r25
 6be:	90 7f       	andi	r25, 0xF0	; 240
 6c0:	89 0f       	add	r24, r25
 6c2:	2e df       	rcall	.-420    	; 0x520 <I2CWrite>
 6c4:	8c 2d       	mov	r24, r12
 6c6:	82 95       	swap	r24
 6c8:	8f 70       	andi	r24, 0x0F	; 15
 6ca:	98 2f       	mov	r25, r24
 6cc:	99 0f       	add	r25, r25
 6ce:	99 0f       	add	r25, r25
 6d0:	89 0f       	add	r24, r25
 6d2:	98 2f       	mov	r25, r24
 6d4:	92 95       	swap	r25
 6d6:	90 7f       	andi	r25, 0xF0	; 240
 6d8:	89 0f       	add	r24, r25
 6da:	22 df       	rcall	.-444    	; 0x520 <I2CWrite>
 6dc:	1d df       	rcall	.-454    	; 0x518 <I2CStop>
 6de:	ae cf       	rjmp	.-164    	; 0x63c <setLEDRgb+0x68>
 6e0:	f8 01       	movw	r30, r16
 6e2:	d0 80       	ld	r13, Z
 6e4:	60 e0       	ldi	r22, 0x00	; 0
 6e6:	84 e3       	ldi	r24, 0x34	; 52
 6e8:	eb de       	rcall	.-554    	; 0x4c0 <I2CStart>
 6ea:	88 23       	and	r24, r24
 6ec:	11 f0       	breq	.+4      	; 0x6f2 <setLEDRgb+0x11e>
 6ee:	c1 2c       	mov	r12, r1
 6f0:	a5 cf       	rjmp	.-182    	; 0x63c <setLEDRgb+0x68>
 6f2:	8d 2d       	mov	r24, r13
 6f4:	15 df       	rcall	.-470    	; 0x520 <I2CWrite>
 6f6:	81 11       	cpse	r24, r1
 6f8:	fa cf       	rjmp	.-12     	; 0x6ee <setLEDRgb+0x11a>
 6fa:	12 df       	rcall	.-476    	; 0x520 <I2CWrite>
 6fc:	80 e0       	ldi	r24, 0x00	; 0
 6fe:	10 df       	rcall	.-480    	; 0x520 <I2CWrite>
 700:	8f ef       	ldi	r24, 0xFF	; 255
 702:	0e df       	rcall	.-484    	; 0x520 <I2CWrite>
 704:	09 df       	rcall	.-494    	; 0x518 <I2CStop>
 706:	c1 2c       	mov	r12, r1
 708:	99 cf       	rjmp	.-206    	; 0x63c <setLEDRgb+0x68>
 70a:	0f 90       	pop	r0
 70c:	0f 90       	pop	r0
 70e:	0f 90       	pop	r0
 710:	0f 90       	pop	r0
 712:	df 91       	pop	r29
 714:	cf 91       	pop	r28
 716:	1f 91       	pop	r17
 718:	0f 91       	pop	r16
 71a:	ff 90       	pop	r15
 71c:	ef 90       	pop	r14
 71e:	df 90       	pop	r13
 720:	cf 90       	pop	r12
 722:	bf 90       	pop	r11
 724:	af 90       	pop	r10
 726:	9f 90       	pop	r9
 728:	8f 90       	pop	r8
 72a:	08 95       	ret
 72c:	8d 2d       	mov	r24, r13
 72e:	f8 de       	rcall	.-528    	; 0x520 <I2CWrite>
 730:	81 11       	cpse	r24, r1
 732:	ac cf       	rjmp	.-168    	; 0x68c <setLEDRgb+0xb8>
 734:	8f ef       	ldi	r24, 0xFF	; 255
 736:	f4 de       	rcall	.-536    	; 0x520 <I2CWrite>
 738:	80 e0       	ldi	r24, 0x00	; 0
 73a:	f2 de       	rcall	.-540    	; 0x520 <I2CWrite>
 73c:	80 e0       	ldi	r24, 0x00	; 0
 73e:	f0 de       	rcall	.-544    	; 0x520 <I2CWrite>
 740:	eb de       	rcall	.-554    	; 0x518 <I2CStop>
 742:	a4 cf       	rjmp	.-184    	; 0x68c <setLEDRgb+0xb8>
 744:	8d 2d       	mov	r24, r13
 746:	ec de       	rcall	.-552    	; 0x520 <I2CWrite>
 748:	81 11       	cpse	r24, r1
 74a:	76 cf       	rjmp	.-276    	; 0x638 <setLEDRgb+0x64>
 74c:	e9 de       	rcall	.-558    	; 0x520 <I2CWrite>
 74e:	8f ef       	ldi	r24, 0xFF	; 255
 750:	e7 de       	rcall	.-562    	; 0x520 <I2CWrite>
 752:	80 e0       	ldi	r24, 0x00	; 0
 754:	e5 de       	rcall	.-566    	; 0x520 <I2CWrite>
 756:	e0 de       	rcall	.-576    	; 0x518 <I2CStop>
 758:	6f cf       	rjmp	.-290    	; 0x638 <setLEDRgb+0x64>

0000075a <main>:
 75a:	cf 93       	push	r28
 75c:	df 93       	push	r29
 75e:	00 d0       	rcall	.+0      	; 0x760 <main+0x6>
 760:	00 d0       	rcall	.+0      	; 0x762 <main+0x8>
 762:	cd b7       	in	r28, 0x3d	; 61
 764:	de b7       	in	r29, 0x3e	; 62
 766:	fc dc       	rcall	.-1544   	; 0x160 <ACEInit>
 768:	a3 de       	rcall	.-698    	; 0x4b0 <I2CInit>
 76a:	ec de       	rcall	.-552    	; 0x544 <LEDInit>
 76c:	a5 d0       	rcall	.+330    	; 0x8b8 <SPIInit>
 76e:	b5 d0       	rcall	.+362    	; 0x8da <bufferInit>
 770:	78 94       	sei
 772:	9e dd       	rcall	.-1220   	; 0x2b0 <disableTimer>
 774:	8a e0       	ldi	r24, 0x0A	; 10
 776:	88 2e       	mov	r8, r24
 778:	94 e1       	ldi	r25, 0x14	; 20
 77a:	99 2e       	mov	r9, r25
 77c:	2e e1       	ldi	r18, 0x1E	; 30
 77e:	a2 2e       	mov	r10, r18
 780:	38 e2       	ldi	r19, 0x28	; 40
 782:	b3 2e       	mov	r11, r19
 784:	0a c0       	rjmp	.+20     	; 0x79a <main+0x40>
 786:	4e 97       	sbiw	r24, 0x1e	; 30
 788:	09 f4       	brne	.+2      	; 0x78c <main+0x32>
 78a:	4d c0       	rjmp	.+154    	; 0x826 <main+0xcc>
 78c:	a6 d0       	rcall	.+332    	; 0x8da <bufferInit>
 78e:	8a dd       	rcall	.-1260   	; 0x2a4 <enableTimer>
 790:	89 dd       	rcall	.-1262   	; 0x2a4 <enableTimer>
 792:	80 91 1e 01 	lds	r24, 0x011E	; 0x80011e <__data_end>
 796:	81 11       	cpse	r24, r1
 798:	51 c0       	rjmp	.+162    	; 0x83c <main+0xe2>
 79a:	80 91 82 01 	lds	r24, 0x0182	; 0x800182 <buffer_length>
 79e:	88 23       	and	r24, r24
 7a0:	b9 f3       	breq	.-18     	; 0x790 <main+0x36>
 7a2:	86 dd       	rcall	.-1268   	; 0x2b0 <disableTimer>
 7a4:	8f ec       	ldi	r24, 0xCF	; 207
 7a6:	97 e0       	ldi	r25, 0x07	; 7
 7a8:	01 97       	sbiw	r24, 0x01	; 1
 7aa:	f1 f7       	brne	.-4      	; 0x7a8 <main+0x4e>
 7ac:	00 c0       	rjmp	.+0      	; 0x7ae <main+0x54>
 7ae:	00 00       	nop
 7b0:	9f d0       	rcall	.+318    	; 0x8f0 <readBuffer>
 7b2:	8f 30       	cpi	r24, 0x0F	; 15
 7b4:	91 05       	cpc	r25, r1
 7b6:	39 f7       	brne	.-50     	; 0x786 <main+0x2c>
 7b8:	80 91 82 01 	lds	r24, 0x0182	; 0x800182 <buffer_length>
 7bc:	81 11       	cpse	r24, r1
 7be:	01 c0       	rjmp	.+2      	; 0x7c2 <main+0x68>
 7c0:	ff cf       	rjmp	.-2      	; 0x7c0 <main+0x66>
 7c2:	96 d0       	rcall	.+300    	; 0x8f0 <readBuffer>
 7c4:	6c 01       	movw	r12, r24
 7c6:	80 91 82 01 	lds	r24, 0x0182	; 0x800182 <buffer_length>
 7ca:	81 11       	cpse	r24, r1
 7cc:	01 c0       	rjmp	.+2      	; 0x7d0 <main+0x76>
 7ce:	ff cf       	rjmp	.-2      	; 0x7ce <main+0x74>
 7d0:	8f d0       	rcall	.+286    	; 0x8f0 <readBuffer>
 7d2:	20 91 82 01 	lds	r18, 0x0182	; 0x800182 <buffer_length>
 7d6:	30 e0       	ldi	r19, 0x00	; 0
 7d8:	c2 16       	cp	r12, r18
 7da:	d3 06       	cpc	r13, r19
 7dc:	09 f0       	breq	.+2      	; 0x7e0 <main+0x86>
 7de:	ff cf       	rjmp	.-2      	; 0x7de <main+0x84>
 7e0:	d0 92 24 01 	sts	0x0124, r13	; 0x800124 <ace_val+0x1>
 7e4:	c0 92 23 01 	sts	0x0123, r12	; 0x800123 <ace_val>
 7e8:	eb e5       	ldi	r30, 0x5B	; 91
 7ea:	ce 16       	cp	r12, r30
 7ec:	d1 04       	cpc	r13, r1
 7ee:	8c f4       	brge	.+34     	; 0x812 <main+0xb8>
 7f0:	8c 15       	cp	r24, r12
 7f2:	9d 05       	cpc	r25, r13
 7f4:	74 f4       	brge	.+28     	; 0x812 <main+0xb8>
 7f6:	8c 01       	movw	r16, r24
 7f8:	0b 5d       	subi	r16, 0xDB	; 219
 7fa:	1e 4f       	sbci	r17, 0xFE	; 254
 7fc:	c6 01       	movw	r24, r12
 7fe:	8b 5d       	subi	r24, 0xDB	; 219
 800:	9e 4f       	sbci	r25, 0xFE	; 254
 802:	7c 01       	movw	r14, r24
 804:	75 d0       	rcall	.+234    	; 0x8f0 <readBuffer>
 806:	f8 01       	movw	r30, r16
 808:	81 93       	st	Z+, r24
 80a:	8f 01       	movw	r16, r30
 80c:	ee 15       	cp	r30, r14
 80e:	ff 05       	cpc	r31, r15
 810:	c9 f7       	brne	.-14     	; 0x804 <main+0xaa>
 812:	4c 2d       	mov	r20, r12
 814:	65 e2       	ldi	r22, 0x25	; 37
 816:	71 e0       	ldi	r23, 0x01	; 1
 818:	84 e1       	ldi	r24, 0x14	; 20
 81a:	a8 d0       	rcall	.+336    	; 0x96c <writeSpiBuffer>
 81c:	60 91 82 01 	lds	r22, 0x0182	; 0x800182 <buffer_length>
 820:	8a e0       	ldi	r24, 0x0A	; 10
 822:	83 d0       	rcall	.+262    	; 0x92a <writeSpi>
 824:	b3 cf       	rjmp	.-154    	; 0x78c <main+0x32>
 826:	89 82       	std	Y+1, r8	; 0x01
 828:	9a 82       	std	Y+2, r9	; 0x02
 82a:	ab 82       	std	Y+3, r10	; 0x03
 82c:	bc 82       	std	Y+4, r11	; 0x04
 82e:	44 e0       	ldi	r20, 0x04	; 4
 830:	be 01       	movw	r22, r28
 832:	6f 5f       	subi	r22, 0xFF	; 255
 834:	7f 4f       	sbci	r23, 0xFF	; 255
 836:	84 e1       	ldi	r24, 0x14	; 20
 838:	99 d0       	rcall	.+306    	; 0x96c <writeSpiBuffer>
 83a:	a8 cf       	rjmp	.-176    	; 0x78c <main+0x32>
 83c:	60 91 23 01 	lds	r22, 0x0123	; 0x800123 <ace_val>
 840:	8a e0       	ldi	r24, 0x0A	; 10
 842:	73 d0       	rcall	.+230    	; 0x92a <writeSpi>
 844:	10 92 1e 01 	sts	0x011E, r1	; 0x80011e <__data_end>
 848:	a8 cf       	rjmp	.-176    	; 0x79a <main+0x40>

0000084a <__vector_3>:
 84a:	1f 92       	push	r1
 84c:	0f 92       	push	r0
 84e:	0f b6       	in	r0, 0x3f	; 63
 850:	0f 92       	push	r0
 852:	11 24       	eor	r1, r1
 854:	2f 93       	push	r18
 856:	8f 93       	push	r24
 858:	9f 93       	push	r25
 85a:	ef 93       	push	r30
 85c:	ff 93       	push	r31
 85e:	1a 9b       	sbis	0x03, 2	; 3
 860:	02 c0       	rjmp	.+4      	; 0x866 <__vector_3+0x1c>
 862:	1f 99       	sbic	0x03, 7	; 3
 864:	0a c0       	rjmp	.+20     	; 0x87a <__vector_3+0x30>
 866:	ff 91       	pop	r31
 868:	ef 91       	pop	r30
 86a:	9f 91       	pop	r25
 86c:	8f 91       	pop	r24
 86e:	2f 91       	pop	r18
 870:	0f 90       	pop	r0
 872:	0f be       	out	0x3f, r0	; 63
 874:	0f 90       	pop	r0
 876:	1f 90       	pop	r1
 878:	18 95       	reti
 87a:	80 91 7f 01 	lds	r24, 0x017F	; 0x80017f <spi_busy>
 87e:	81 11       	cpse	r24, r1
 880:	f2 cf       	rjmp	.-28     	; 0x866 <__vector_3+0x1c>
 882:	f8 94       	cli
 884:	2e b5       	in	r18, 0x2e	; 46
 886:	90 91 82 01 	lds	r25, 0x0182	; 0x800182 <buffer_length>
 88a:	94 36       	cpi	r25, 0x64	; 100
 88c:	79 f0       	breq	.+30     	; 0x8ac <__vector_3+0x62>
 88e:	80 91 80 01 	lds	r24, 0x0180	; 0x800180 <write_index>
 892:	e8 2f       	mov	r30, r24
 894:	f0 e0       	ldi	r31, 0x00	; 0
 896:	ed 57       	subi	r30, 0x7D	; 125
 898:	fe 4f       	sbci	r31, 0xFE	; 254
 89a:	20 83       	st	Z, r18
 89c:	8f 5f       	subi	r24, 0xFF	; 255
 89e:	80 93 80 01 	sts	0x0180, r24	; 0x800180 <write_index>
 8a2:	9f 5f       	subi	r25, 0xFF	; 255
 8a4:	90 93 82 01 	sts	0x0182, r25	; 0x800182 <buffer_length>
 8a8:	84 36       	cpi	r24, 0x64	; 100
 8aa:	19 f0       	breq	.+6      	; 0x8b2 <__vector_3+0x68>
 8ac:	1e bc       	out	0x2e, r1	; 46
 8ae:	78 94       	sei
 8b0:	da cf       	rjmp	.-76     	; 0x866 <__vector_3+0x1c>
 8b2:	10 92 80 01 	sts	0x0180, r1	; 0x800180 <write_index>
 8b6:	fa cf       	rjmp	.-12     	; 0x8ac <__vector_3+0x62>

000008b8 <SPIInit>:
 8b8:	27 98       	cbi	0x04, 7	; 4
 8ba:	2f 98       	cbi	0x05, 7	; 5
 8bc:	24 9a       	sbi	0x04, 4	; 4
 8be:	26 9a       	sbi	0x04, 6	; 4
 8c0:	e8 e6       	ldi	r30, 0x68	; 104
 8c2:	f0 e0       	ldi	r31, 0x00	; 0
 8c4:	80 81       	ld	r24, Z
 8c6:	81 60       	ori	r24, 0x01	; 1
 8c8:	80 83       	st	Z, r24
 8ca:	eb e6       	ldi	r30, 0x6B	; 107
 8cc:	f0 e0       	ldi	r31, 0x00	; 0
 8ce:	80 81       	ld	r24, Z
 8d0:	84 60       	ori	r24, 0x04	; 4
 8d2:	80 83       	st	Z, r24
 8d4:	80 e4       	ldi	r24, 0x40	; 64
 8d6:	8c bd       	out	0x2c, r24	; 44
 8d8:	08 95       	ret

000008da <bufferInit>:
 8da:	10 92 81 01 	sts	0x0181, r1	; 0x800181 <read_index>
 8de:	10 92 80 01 	sts	0x0180, r1	; 0x800180 <write_index>
 8e2:	10 92 82 01 	sts	0x0182, r1	; 0x800182 <buffer_length>
 8e6:	e3 e8       	ldi	r30, 0x83	; 131
 8e8:	f1 e0       	ldi	r31, 0x01	; 1
 8ea:	10 82       	st	Z, r1
 8ec:	11 82       	std	Z+1, r1	; 0x01
 8ee:	08 95       	ret

000008f0 <readBuffer>:
 8f0:	90 91 82 01 	lds	r25, 0x0182	; 0x800182 <buffer_length>
 8f4:	99 23       	and	r25, r25
 8f6:	b1 f0       	breq	.+44     	; 0x924 <readBuffer+0x34>
 8f8:	80 91 81 01 	lds	r24, 0x0181	; 0x800181 <read_index>
 8fc:	e8 2f       	mov	r30, r24
 8fe:	f0 e0       	ldi	r31, 0x00	; 0
 900:	ed 57       	subi	r30, 0x7D	; 125
 902:	fe 4f       	sbci	r31, 0xFE	; 254
 904:	20 81       	ld	r18, Z
 906:	30 e0       	ldi	r19, 0x00	; 0
 908:	8f 5f       	subi	r24, 0xFF	; 255
 90a:	80 93 81 01 	sts	0x0181, r24	; 0x800181 <read_index>
 90e:	91 50       	subi	r25, 0x01	; 1
 910:	90 93 82 01 	sts	0x0182, r25	; 0x800182 <buffer_length>
 914:	84 36       	cpi	r24, 0x64	; 100
 916:	11 f0       	breq	.+4      	; 0x91c <readBuffer+0x2c>
 918:	c9 01       	movw	r24, r18
 91a:	08 95       	ret
 91c:	10 92 81 01 	sts	0x0181, r1	; 0x800181 <read_index>
 920:	c9 01       	movw	r24, r18
 922:	08 95       	ret
 924:	8f ef       	ldi	r24, 0xFF	; 255
 926:	9f ef       	ldi	r25, 0xFF	; 255
 928:	08 95       	ret

0000092a <writeSpi>:
 92a:	95 e8       	ldi	r25, 0x85	; 133
 92c:	9a 95       	dec	r25
 92e:	f1 f7       	brne	.-4      	; 0x92c <writeSpi+0x2>
 930:	00 00       	nop
 932:	90 91 7f 01 	lds	r25, 0x017F	; 0x80017f <spi_busy>
 936:	91 11       	cpse	r25, r1
 938:	ff cf       	rjmp	.-2      	; 0x938 <writeSpi+0xe>
 93a:	91 e0       	ldi	r25, 0x01	; 1
 93c:	90 93 7f 01 	sts	0x017F, r25	; 0x80017f <spi_busy>
 940:	9d b5       	in	r25, 0x2d	; 45
 942:	8e bd       	out	0x2e, r24	; 46
 944:	2f 98       	cbi	0x05, 7	; 5
 946:	27 9a       	sbi	0x04, 7	; 4
 948:	f8 94       	cli
 94a:	0d b4       	in	r0, 0x2d	; 45
 94c:	07 fe       	sbrs	r0, 7
 94e:	fd cf       	rjmp	.-6      	; 0x94a <writeSpi+0x20>
 950:	1a 9b       	sbis	0x03, 2	; 3
 952:	fb cf       	rjmp	.-10     	; 0x94a <writeSpi+0x20>
 954:	6e bd       	out	0x2e, r22	; 46
 956:	0d b4       	in	r0, 0x2d	; 45
 958:	07 fe       	sbrs	r0, 7
 95a:	fd cf       	rjmp	.-6      	; 0x956 <writeSpi+0x2c>
 95c:	1a 9b       	sbis	0x03, 2	; 3
 95e:	fb cf       	rjmp	.-10     	; 0x956 <writeSpi+0x2c>
 960:	2f 98       	cbi	0x05, 7	; 5
 962:	27 98       	cbi	0x04, 7	; 4
 964:	78 94       	sei
 966:	10 92 7f 01 	sts	0x017F, r1	; 0x80017f <spi_busy>
 96a:	08 95       	ret

0000096c <writeSpiBuffer>:
 96c:	90 91 7f 01 	lds	r25, 0x017F	; 0x80017f <spi_busy>
 970:	91 11       	cpse	r25, r1
 972:	ff cf       	rjmp	.-2      	; 0x972 <writeSpiBuffer+0x6>
 974:	1f 9b       	sbis	0x03, 7	; 3
 976:	fe cf       	rjmp	.-4      	; 0x974 <writeSpiBuffer+0x8>
 978:	91 e0       	ldi	r25, 0x01	; 1
 97a:	90 93 7f 01 	sts	0x017F, r25	; 0x80017f <spi_busy>
 97e:	f8 94       	cli
 980:	9d b5       	in	r25, 0x2d	; 45
 982:	8e bd       	out	0x2e, r24	; 46
 984:	2f 98       	cbi	0x05, 7	; 5
 986:	27 9a       	sbi	0x04, 7	; 4
 988:	0d b4       	in	r0, 0x2d	; 45
 98a:	07 fe       	sbrs	r0, 7
 98c:	fd cf       	rjmp	.-6      	; 0x988 <writeSpiBuffer+0x1c>
 98e:	1a 9b       	sbis	0x03, 2	; 3
 990:	fb cf       	rjmp	.-10     	; 0x988 <writeSpiBuffer+0x1c>
 992:	4e bd       	out	0x2e, r20	; 46
 994:	44 23       	and	r20, r20
 996:	71 f0       	breq	.+28     	; 0x9b4 <writeSpiBuffer+0x48>
 998:	fb 01       	movw	r30, r22
 99a:	9b 01       	movw	r18, r22
 99c:	24 0f       	add	r18, r20
 99e:	31 1d       	adc	r19, r1
 9a0:	0d b4       	in	r0, 0x2d	; 45
 9a2:	07 fe       	sbrs	r0, 7
 9a4:	fd cf       	rjmp	.-6      	; 0x9a0 <writeSpiBuffer+0x34>
 9a6:	1a 9b       	sbis	0x03, 2	; 3
 9a8:	fb cf       	rjmp	.-10     	; 0x9a0 <writeSpiBuffer+0x34>
 9aa:	81 91       	ld	r24, Z+
 9ac:	8e bd       	out	0x2e, r24	; 46
 9ae:	2e 17       	cp	r18, r30
 9b0:	3f 07       	cpc	r19, r31
 9b2:	b1 f7       	brne	.-20     	; 0x9a0 <writeSpiBuffer+0x34>
 9b4:	0d b4       	in	r0, 0x2d	; 45
 9b6:	07 fe       	sbrs	r0, 7
 9b8:	fd cf       	rjmp	.-6      	; 0x9b4 <writeSpiBuffer+0x48>
 9ba:	1a 9b       	sbis	0x03, 2	; 3
 9bc:	fb cf       	rjmp	.-10     	; 0x9b4 <writeSpiBuffer+0x48>
 9be:	2f 98       	cbi	0x05, 7	; 5
 9c0:	27 98       	cbi	0x04, 7	; 4
 9c2:	78 94       	sei
 9c4:	10 92 7f 01 	sts	0x017F, r1	; 0x80017f <spi_busy>
 9c8:	08 95       	ret

000009ca <_exit>:
 9ca:	f8 94       	cli

000009cc <__stop_program>:
 9cc:	ff cf       	rjmp	.-2      	; 0x9cc <__stop_program>
